    1                     ;;; This is the Scelbi Basic Program from 1974 known as
    2                     ;;; SCELBAL by Mark G. Arnold (MGA) and Nat Wadsworth  
    3                     ;;;
    4                     ;;;  Copyright 1975 Scelbi Computer Consulting, Inc.
    5                     ;;;  All rights reserved
    6                     ;;;
    7                     ;;; MGA gives permission to use SCELBAL for 
    8                     ;;; educational, historical, non-commercial purposes.
    9                     ;;; Versions of this have been circulating on the web since
   10                     ;;; about 2000; this version is authorized by MGA (Mar 2012)
   11                     ;;; with the understanding no warranty is expressed or implied.
   12                     ;;; As stated in the original, "no responsibility is assumed for
   13                     ;;; for inaccuracies or for the success or failure of
   14                     ;;; various applications to which the information herein
   15                     ;;; may be applied."
   16                     ;;; 
   17                     ;;; SCELBAL is the only open-source, floating-point 
   18                     ;;; high-level language ever implemented on Intel's first
   19                     ;;; general-purpose microprocessor, the 8008.  It was
   20                     ;;; published in book form:
   21                     ;;;
   22                     ;;;  SCELBAL: A Higher-Level Language for 8008/8080 Systems
   23                     ;;;
   24                     ;;; (Tiny BASIC only used 16-bit integers; the MCM\70
   25                     ;;; was a closed system; calculators implemented with 8008
   26                     ;;; were floating-point, but not high-level.)
   27                     ;;;
   28                     ;;; This version is modified to assemble with the
   29                     ;;; as8 assembler (using the -octal option) 
   30                     ;;; for the Intel 8008 by Thomas E. Jones.
   31                     ;;; This current form is made up non-relocatable so that
   32                     ;;; locations of all code and data is identical to the
   33                     ;;; original SCELBAL documents and patches.  It should be
   34                     ;;; reasonable after debugging code to convert this to a
   35                     ;;; relocatable and ROMable code with variables in RAM.
   36                     ;;; This code originates from a version made by 
   37                     ;;;
   38                     ;;;    Steve Loboyko in 2001.
   39                     ;;;
   40                     ;;; This version has all 3 patches for SCELBAL (the two
   41                     ;;; pasted in the original manual, and a third which was
   42                     ;;; written in SCELBAL UPDATE publication, as well as
   43                     ;;; a couple changes to constants which didn't actually
   44                     ;;; require a patch, just changes to bytes of data or
   45                     ;;; arguments to an instruction--one of these (Tucker) was 
   46                     ;;; incorrect and restored to original by MGA March 2012).
   47                     ;;; 
   48                     ;;; This comment must be incorporated with any version of SCELBAL
   49                     ;;; downloaded, distributed, posted or disemenated.
   50                     	
   51                     
   52                     ENDPGRAM:	EQU	02DH                      ;MGA 4/10/12 as in orig; for his ROMable Loboyko said 077       [077]
   53                     BGNPGRAM:	EQU	01BH                      ;MGA 4/10/12 as in orig; for his ROMable Loboyko said 044       [044]
   54                     	
   55                     ;;; Here are labels originally attempting to make the code
   56                     ;;; relocatable.  These 4 pages contain variable data
   57                     ;;; which needs to be relocated from ROM to RAM.
   58                     ;;; I can't vouch for ALL references to these pages in
   59                     ;;; the code being switched to these labels, but they
   60                     ;;; seem to be.
   61                     	
   62                     OLDPG1:	EQU	00100H
   63                     OLDPG26:	EQU	01600H
   64                     OLDPG27:	EQU	01700H
   65                     OLDPG57:	EQU	02F00H
   66                     
   67                     ;;; CP/M BDOS equates
   68                     BDOS:	EQU	0005H	; BDOS entry point
   69                     C_READ:	EQU	1	; Console input
   70                     C_WRITE:	EQU	2	; Console output
   71                     P_TERMCPM:	EQU	0	; Warm boot / exit
   72                     
   73                     ;;; =========================================================================
   74                     ;;; Page 1 (0100H-01FFH) Variable/Constant Offset Definitions
   75                     ;;; These are LOW BYTE offsets used with H=HIGH OLDPG1
   76                     ;;; =========================================================================
   77                     
   78                     ;;; Floating Point Constants
   79                     OFS_FP_CONST_1:	EQU	004H	; FP constant +1.0 (4 bytes)
   80                     OFS_EXP_COUNTER:	EQU	00BH	; Exponent counter (1 byte)
   81                     OFS_FP_TEMP:	EQU	00CH	; FP temp storage (4 bytes)
   82                     OFS_FP_CONST_NEG1:	EQU	014H	; FP constant -1.0 (4 bytes)
   83                     OFS_SCRATCH_PAD1:	EQU	018H	; Scratch pad area (16 bytes)
   84                     OFS_RND_CONST1:	EQU	028H	; Random number constant 1
   85                     OFS_RND_CONST2:	EQU	030H	; Random number constant 2
   86                     OFS_SCRATCH_PAD2:	EQU	034H	; Scratch pad area (12 bytes)
   87                     
   88                     ;;; Sign and Mode Indicators
   89                     OFS_SIGN_IND1:	EQU	040H	; Sign indicator 1 (2 bytes)
   90                     OFS_BITS_COUNTER:	EQU	042H	; Bits counter (1 byte)
   91                     OFS_SIGN_IND2:	EQU	043H	; Sign indicator 2 (2 bytes)
   92                     OFS_INP_DIG_CNT:	EQU	045H	; Input digit counter
   93                     OFS_TEMP_STORE:	EQU	046H	; Temporary storage
   94                     OFS_OUT_DIG_CNT:	EQU	047H	; Output digit counter
   95                     OFS_FP_MODE_IND:	EQU	048H	; FP mode indicator
   96                     
   97                     ;;; Floating Point Accumulator (FPACC)
   98                     OFS_FPACC_EXT:	EQU	050H	; FPACC extension (4 bytes)
   99                     OFS_FPACC:	EQU	054H	; FPACC LSW (start of 4-byte FPACC)
  100                     OFS_FPACC_LSW:	EQU	054H	; FPACC Least Significant Word
  101                     OFS_FPACC_NSW:	EQU	055H	; FPACC Next Significant Word
  102                     OFS_FPACC_MSW:	EQU	056H	; FPACC Most Significant Word
  103                     OFS_FPACC_EXP:	EQU	057H	; FPACC Exponent
  104                     
  105                     ;;; Floating Point Operand (FPOP)
  106                     OFS_FPOP_EXT:	EQU	058H	; FPOP extension (4 bytes)
  107                     OFS_FPOP:	EQU	05CH	; FPOP LSW (start of 4-byte FPOP)
  108                     OFS_FPOP_LSW:	EQU	05CH	; FPOP Least Significant Word
  109                     OFS_FPOP_NSW:	EQU	05DH	; FPOP Next Significant Word
  110                     OFS_FPOP_MSW:	EQU	05EH	; FPOP Most Significant Word
  111                     OFS_FPOP_EXP:	EQU	05FH	; FPOP Exponent
  112                     
  113                     ;;; Additional page 1 offsets (early addresses)
  114                     OFS_EXP_TEMP:	EQU	003H	; Exponent temp storage
  115                     OFS_FP_TEMP_0F:	EQU	00FH	; FP temp +3
  116                     OFS_SCRATCH_1F:	EQU	01FH	; Scratch pad +7
  117                     
  118                     ;;; FPACC/FPOP adjacent offsets for E register
  119                     OFS_FPACC_LSW_M1:	EQU	053H	; FPACC LSW minus 1
  120                     OFS_FPOP_EXT_59:	EQU	059H	; FPOP extension +1 (working area)
  121                     OFS_FP_WORK_61:	EQU	061H	; FP work +1 (partial product)
  122                     
  123                     ;;; Floating Point Working Area (24 bytes at 060H-077H)
  124                     OFS_FP_WORK:	EQU	060H	; FP working area start
  125                     OFS_FP_WORK_63:	EQU	063H	; FP working area +3
  126                     OFS_FP_WORK_65:	EQU	065H	; FP working area +5
  127                     OFS_FP_WORK_66:	EQU	066H	; FP working area +6
  128                     OFS_FP_WORK_68:	EQU	068H	; FP working area +8
  129                     OFS_FP_WORK_6A:	EQU	06AH	; FP working area +A
  130                     OFS_FP_WORK_6B:	EQU	06BH	; FP working area +B
  131                     OFS_FP_WORK_6C:	EQU	06CH	; FP working area +C
  132                     OFS_FP_WORK_6E:	EQU	06EH	; FP working area +E
  133                     OFS_FP_WORK_6F:	EQU	06FH	; FP working area +F
  134                     OFS_FP_WORK_70:	EQU	070H	; FP working area +10
  135                     OFS_FP_WORK_74:	EQU	074H	; FP working area +14
  136                     OFS_FP_WORK_76:	EQU	076H	; FP working area +16 (output MSW)
  137                     OFS_FP_WORK_77:	EQU	077H	; FP working area +17
  138                     
  139                     ;;; Temporary Register Storage and Constants
  140                     OFS_TEMP_REGS:	EQU	080H	; Temp register storage (D,E,H,L)
  141                     OFS_FP_CONST_10:	EQU	088H	; FP constant +10.0
  142                     OFS_FP_CONST_0P1:	EQU	08CH	; FP constant +0.1
  143                     
  144                     ;;; Counters and Stack Pointers
  145                     OFS_GETINP_CNT:	EQU	090H	; GETINP counter
  146                     OFS_ARITH_STKPTR:	EQU	097H	; Arithmetic stack pointer
  147                     OFS_FA_STKPTR:	EQU	098H	; FUN/ARRAY stack pointer
  148                     OFS_ARITH_STACK:	EQU	098H	; Arithmetic stack (variable)
  149                     
  150                     ;;; FOR/NEXT Storage (in TEMP_AREA2 at 0C4H-0CFH)
  151                     OFS_FN_STEP:	EQU	0C4H	; FOR/NEXT step size (4 bytes)
  152                     OFS_FN_STEP_C6:	EQU	0C6H	; FOR/NEXT step +2
  153                     OFS_FN_LIMIT:	EQU	0C8H	; FOR/NEXT limit value (4 bytes)
  154                     OFS_FN_TEMP:	EQU	0CCH	; FOR/NEXT temp (4 bytes)
  155                     
  156                     ;;; Keyword lookup table entries (in page 1)
  157                     OFS_KW_THEN:	EQU	0D0H	; THEN keyword
  158                     OFS_KW_TO:	EQU	0D5H	; TO keyword
  159                     OFS_KW_STEP:	EQU	0D8H	; STEP keyword
  160                     OFS_KW_LIST:	EQU	0DDH	; LIST keyword
  161                     OFS_KW_RUN:	EQU	0E2H	; RUN keyword
  162                     OFS_KW_SCR:	EQU	0E6H	; SCR keyword
  163                     OFS_MSG_READY:	EQU	0EAH	; READY message
  164                     
  165                     ;;; Temporary and Working Storage
  166                     OFS_TEMP_F0:	EQU	0F0H	; Temp storage at F0H
  167                     OFS_TEMP_F3:	EQU	0F3H	; Temp storage at F3H
  168                     OFS_TEMP_F4:	EQU	0F4H	; Temp storage at F4H
  169                     OFS_TEMP_F6:	EQU	0F6H	; Temp storage at F6H
  170                     OFS_TEMP_F7:	EQU	0F7H	; Temp storage at F7H
  171                     OFS_LOOKUP_CNT:	EQU	0F8H	; Look-up counter
  172                     OFS_TEMP_OP:	EQU	0F9H	; Temp OP storage
  173                     
  174                     ;;; =========================================================================
  175                     ;;; Page 26 (1600H-16FFH) Line Buffer and Pointer Offset Definitions
  176                     ;;; These are LOW BYTE offsets used with H=HIGH OLDPG26
  177                     ;;; =========================================================================
  178                     
  179                     OFS_LINE_INP_BUF:	EQU	000H	; Line input buffer start (CC + 79 chars)
  180                     OFS_PARSER_TOKEN:	EQU	07EH	; Parser token storage
  181                     OFS_EVAL_CURRENT:	EQU	080H	; EVAL current pointer
  182                     OFS_SYNTAX_PTR:	EQU	081H	; Syntax counter/pointer
  183                     OFS_SCAN_PTR:	EQU	082H	; SCAN pointer
  184                     OFS_TOKEN_STORE:	EQU	083H	; TOKEN storage location
  185                     OFS_TEMP_ARRAY:	EQU	084H	; Temp array pointer
  186                     OFS_TEMP_085:	EQU	085H	; Temp storage at 85H
  187                     OFS_ARRAY_SETUP:	EQU	086H	; Array setup pointer
  188                     OFS_LOOP_COUNTER:	EQU	087H	; Loop counter
  189                     OFS_OP_STKPTR:	EQU	088H	; Operator stack pointer
  190                     OFS_TAB_FLAG:	EQU	07FH	; TAB flag
  191                     OFS_FUNC_TBL_BASE:	EQU	0BCH	; Function lookup table base (less 4)
  192                     OFS_EVAL_PTR:	EQU	0BEH	; EVAL pointer
  193                     OFS_EVAL_FINISH:	EQU	0BFH	; EVAL finish pointer
  194                     OFS_LINENUM_BUF:	EQU	0E0H	; Line number buffer
  195                     OFS_AUX_LINENUM:	EQU	0E8H	; Auxiliary line number buffer
  196                     OFS_COL_COUNTER:	EQU	023H	; Column counter
  197                     OFS_COL_024:	EQU	024H	; Column area +1
  198                     
  199                     ;;; Page 26 Symbol Buffer (at offset 050H, same as Page 27 start)
  200                     OFS_SYMBOL_BUF:	EQU	050H	; Symbol buffer start
  201                     OFS_SYMBOL_CHAR1:	EQU	051H	; Symbol buffer 1st character
  202                     OFS_SYMBOL_CHAR2:	EQU	052H	; Symbol buffer 2nd character
  203                     
  204                     ;;; =========================================================================
  205                     ;;; Page 27 (1700H-17FFH) Keyword Table and Variables Offset Definitions
  206                     ;;; These are LOW BYTE offsets used with H=HIGH OLDPG27
  207                     ;;; =========================================================================
  208                     
  209                     OFS_KEYWORD_TBL:	EQU	000H	; Keyword table start
  210                     OFS_GOSUB_STK_BASE:	EQU	03BH	; GOSUB stack base (page 26)
  211                     OFS_ARRAY_TEMP:	EQU	03EH	; Array temp / GOSUB stack offset
  212                     OFS_SYMVAR_CNT:	EQU	03FH	; Symbol variables counter
  213                     OFS_ARRAY_VAR:	EQU	04CH	; Array variables table
  214                     OFS_SYMBOL_BUF_64:	EQU	064H	; Symbol buffer in page 27 (alternate)
  215                     OFS_FA_STACK_TEMP:	EQU	083H	; F/A stack temp storage
  216                     OFS_VARIABLES_TBL:	EQU	088H	; Variables lookup table start
  217                     
  218                     ;;; =========================================================================
  219                     ;;; User Program Buffer Offset (used with BGNPGRAM page)
  220                     ;;; =========================================================================
  221                     
  222                     OFS_USER_PROG:	EQU	000H	; User program buffer start
  223                     
  224                     ;;; =========================================================================
  225                     ;;; CP/M Entry Point - Program starts here at 0100H
  226                     ;;; =========================================================================
  227                     
  228                     	ORG	00100H
  229  0100  C3 B6 08     	JMP	EXEC		; Jump to main entry point
  230                     
  231                     ;;; Page one has many constants and variables.
  232                     ;;; See docs/variable_map.txt for detailed address mapping
  233                     ;;; Note: First 3 bytes are the JMP EXEC, then 1 byte padding
  234                     
  235                     	DS	1                                   ; (reserved padding, total 4 bytes from 100H)
  236                     FP_CONST_1:                                     ; Floating point constant +1.0
  237  0104  00 00 40 01  	DB	000H,000H,040H,001H
  238                     	DS	3                                   ; (reserved padding)
  239                     EXP_COUNTER:                                    ; Exponent counter
  240  010B  00           	DB	000H
  241                     FP_TEMP:                                        ; Floating point number temp storage
  242  010C  00 00 00 00  	DB	000H,000H,000H,000H
  243                     	DS	4                                   ; (reserved padding)
  244                     FP_CONST_NEG1:                                  ; Floating point constant -1.0
  245  0114  00 00 C0 01  	DB	000H,000H,0C0H,001H
  246                     SCRATCH_PAD1:                                   ; Scratch pad area (16 bytes)
  247  0118  00 00 00 00  	DB	000H,000H,000H,000H
  248  011C  00 00 00 00  	DB	000H,000H,000H,000H
  249  0120  00 00 00 00  	DB	000H,000H,000H,000H
  250  0124  00 00 00 00  	DB	000H,000H,000H,000H
  251                     RND_CONST1:                                     ; Random number generator constant
  252  0128  01 50 72 02  	DB	001H,050H,072H,002H
  253                     	DS	4                                   ; (reserved padding)
  254                     RND_CONST2:                                     ; Random number generator constant
  255  0130  03 68 6F 0C  	DB	003H,068H,06FH,00CH
  256                     SCRATCH_PAD2:                                   ; Scratch pad area (12 bytes)
  257  0134  00 00 00 00  	DB	000H,000H,000H,000H
  258  0138  00 00 00 00  	DB	000H,000H,000H,000H
  259  013C  00 00 00 00  	DB	000H,000H,000H,000H
  260                     SIGN_IND1:                                      ; Sign indicator
  261  0140  00 00        	DB	000H,000H
  262                     BITS_COUNTER:                                   ; Bits counter
  263  0142  00           	DB	000H
  264                     SIGN_IND2:                                      ; Sign indicator
  265  0143  00 00        	DB	000H,000H
  266                     INP_DIG_CNT:                                    ; Input digit counter
  267  0145  00           	DB	000H
  268                     TEMP_STORE:                                     ; Temporary storage
  269  0146  00           	DB	000H
  270                     OUT_DIG_CNT:                                    ; Output digit counter
  271  0147  00           	DB	000H
  272                     FP_MODE_IND:                                    ; FP mode indicator
  273  0148  00           	DB	000H
  274                     	DS	7                                   ; (not assigned - 0149H-014FH)
  275                     FPACC_EXT:                                      ; FPACC extension
  276  0150  00 00 00 00  	DB	000H,000H,000H,000H
  277                     FPACC:                                          ; FPACC (LSW, NSW, MSW, Exponent)
  278  0154  00 00 00 00  	DB	000H,000H,000H,000H
  279                     FPOP_EXT:                                       ; FPOP extension
  280  0158  00 00 00 00  	DB	000H,000H,000H,000H
  281                     FPOP:                                           ; FPOP (LSW, NSW, MSW, Exponent)
  282  015C  00 00 00 00  	DB	000H,000H,000H,000H
  283                     FP_WORK_AREA:                                   ; Floating point working area (24 bytes)
  284  0160  00 00 00 00  	DB	000H,000H,000H,000H
  285  0164  00 00 00 00  	DB	000H,000H,000H,000H
  286  0168  00 00 00 00  	DB	000H,000H,000H,000H
  287  016C  00 00 00 00  	DB	000H,000H,000H,000H
  288  0170  00 00 00 00  	DB	000H,000H,000H,000H
  289  0174  00 00 00 00  	DB	000H,000H,000H,000H
  290                     	DS	8                                   ; (not assigned - 0178H-017FH)
  291                     TEMP_REGS:                                      ; Temporary register storage (D,E,H,L)
  292  0180  00 00 00 00  	DB	000H,000H,000H,000H
  293                     	DS	4                                   ; (not assigned - 0184H-0187H)
  294                     FP_CONST_10:                                    ; Floating point constant +10.0
  295  0188  00 00 50 04  	DB	000H,000H,050H,004H
  296                     FP_CONST_0P1:                                   ; Floating point constant +0.1
  297  018C  67 66 66 FD  	DB	067H,066H,066H,0FDH
  298                     GETINP_CNT:                                     ; GETINP counter
  299  0190  00           	DB	000H
  300                     	DS	6                                   ; (not assigned - 0191H-0196H)
  301                     ARITH_STKPTR:                                   ; Arithmetic stack pointer
  302  0197  00           	DB	000H
  303                     ARITH_STACK:                                    ; Arithmetic stack (variable length)
  304  0198  00           	DB	000H
  305                     
  306                     	ORG	001BAH
  307                     KW_SAVE:                                        ; "SAVE" keyword (length + chars)
  308  01BA  04           	DB	004H
  309  01BB  53 41 56 45  	DB	"SAVE"
  310                     KW_LOAD:                                        ; "LOAD" keyword (length + chars)
  311  01BF  04           	DB	004H
  312  01C0  4C 4F 41 44  	DB	"LOAD"
  313                     TEMP_AREA2:                                     ; Temp area (STEP, FOR/NEXT, ARRAY PTR)
  314  01C4  00 00 00 00  	DB	000H,000H,000H,000H
  315  01C8  00 00 00 00  	DB	000H,000H,000H,000H
  316  01CC  00 00 00 00  	DB	000H,000H,000H,000H
  317                     
  318                     ;;; Keyword table at location 01D0H (01#320 octal)
  319                     KW_THEN:
  320  01D0  04           	DB	004H
  321  01D1  54 48 45 4E  	DB	"THEN"
  322                     KW_TO:
  323  01D5  02           	DB	002H
  324  01D6  54 4F        	DB	"TO"
  325                     KW_STEP:
  326  01D8  04           	DB	004H
  327  01D9  53 54 45 50  	DB	"STEP"
  328                     KW_LIST:
  329  01DD  04           	DB	004H
  330  01DE  4C 49 53 54  	DB	"LIST"
  331                     KW_RUN:
  332  01E2  03           	DB	003H
  333  01E3  52 55 4E     	DB	"RUN"
  334                     KW_SCR:
  335  01E6  03           	DB	003H
  336  01E7  53 43 52     	DB	"SCR"
  337                     
  338                     ;;; Messages
  339                     MSG_READY:                                      ; "READY" message with control chars
  340  01EA  0B           	DB	00BH                                ; Length = 11
  341  01EB  94 8D 8A     	DB	094H,08DH,08AH                      ; CTRL-T, CR, LF
  342  01EE  52 45 41 44  	DB	"READY"
       01F2  59         
  343  01F3  8D 8A 8A     	DB	08DH,08AH,08AH                      ; CR, LF, LF
  344                     MSG_AT_LINE:                                    ; " AT LINE " message
  345  01F6  09           	DB	009H                                ; Length = 9
  346  01F7  20 41 54 20  	DB	" AT LINE "
       01FB  4C 49 4E 45
       01FF  20         
  347                     ;;; END OF PAGE 01
  348                     
  349                     ;;; =========================================================================
  350                     ;;; CP/M I/O Routines (placed at end of page 1 area)
  351                     ;;; These replace the original bit-banged serial I/O with CP/M BDOS calls
  352                     ;;; =========================================================================
  353                     
  354                     save:
  355  0200  C3 B6 08     load:	JMP	EXEC                          ; By default, save and load isn't implemented.
  356                     
  357                     ;;; CP/M CHARACTER INPUT - uses BDOS function 1 (C_READ)
  358                     ;;; Returns character in A
  359                     
  360  0203  C5           CINP:	PUSH	B
  361  0204  D5           	PUSH	D
  362  0205  E5           	PUSH	H
  363  0206  0E 01        	MVI	C,C_READ	; BDOS function 1: console input
  364  0208  CD 05 00     	CALL	BDOS		; Call BDOS, char returned in A
  365  020B  E1           	POP	H
  366  020C  D1           	POP	D
  367  020D  C1           	POP	B
  368  020E  C9           	RET
  369                     
  370                     ;;; no user defined functions yet, stop here if we see one.
  371  020F  C3 00 00     UDEFX:	JMP	0		; Warm boot on undefined function
  372                     
  373                     ;;; CP/M CHARACTER OUTPUT - uses BDOS function 2 (C_WRITE)
  374                     ;;; Character to print in A
  375                     
  376  0212  C5           CPRINT:	PUSH	B
  377  0213  D5           	PUSH	D
  378  0214  E5           	PUSH	H
  379  0215  5F           	MOV	E,A		; Character to E for BDOS
  380  0216  0E 02        	MVI	C,C_WRITE	; BDOS function 2: console output
  381  0218  CD 05 00     	CALL	BDOS		; Call BDOS
  382  021B  E1           	POP	H
  383  021C  D1           	POP	D
  384  021D  C1           	POP	B
  385  021E  C9           	RET
  386                     
  387                     ;;; END OF CP/M I/O ROUTINES
  388                     
  389                     	ORG	00200H                             ; START PAGE 02, THE CODE
  390                     	
  391                     
  392  0200  CD AD 02     SYNTAX:	CALL	CLESYM                     ;Clear the SYMBOL BUFFER area
  393  0203  2E E0                   MVI	L,OFS_LINENUM_BUF                   ;Set L to start of LINE NUMBER BUFFER
  394  0205  26 16                   MVI	H,HIGH OLDPG26           ;** Set H to page of LINE NUMBER BUFFER
  395  0207  36 00                   MVI	M,000H                   ;Initialize line number buff by placing zero as (cc)
  396  0209  2E 81                   MVI	L,OFS_SYNTAX_PTR                   ;Change pointer to syntax counter/pointer storage loc.
  397  020B  36 01                   MVI	M,001H                   ;Set pointer to first character (after cc) in line buffer
  398  020D  2E 81        SYNTX1:	MVI	L,OFS_SYNTAX_PTR                      ;Set pointer to syntax cntr/pntr storage location
  399  020F  CD A0 02                CALL	GETCHR                  ;Fetch the character pointed to by contents of syntax
  400  0212  CA 24 02                JZ	SYNTX2                    ;Cntr/pntr from the line input buffer. If character was
  401  0215  FE B0                   CPI	0B0H                     ;A space, ignore. Else, test to see if character was ASCII
  402  0217  FA 31 02                JM	SYNTX3                    ;Code for a decimal digit. If not a decimal digit, consider
  403  021A  FE BA                   CPI	0BAH                     ;Line number to have been processed by jumping
  404  021C  F2 31 02                JP	SYNTX3                    ;Over the remainder of this SYNTX1 section.
  405  021F  2E E0                   MVI	L,OFS_LINENUM_BUF                   ;If have decimal digit, set pointer to start of LINE
  406  0221  CD CC 02                CALL	CONCT1                  ;NUMBER BUFFER and append incoming digit there.
  407  0224  2E 81        SYNTX2:	MVI	L,OFS_SYNTAX_PTR                      ;Reset L to syntax cntr/pntr storage location. Call sub-
  408  0226  CD 03 03                CALL	LOOP                    ;Routine to advance pntr and test for end of inr)ut buffer
  409  0229  C2 0D 02                JNZ	SYNTX1                   ;If not end of input buffer, go back for next digit
  410  022C  2E 83                   MVI	L,OFS_TOKEN_STORE                   ;If end of buffer, only had a line number in the line.
  411  022E  36 00                   MVI	M,000H                   ;Set pntr to TOKEN storage location. Set TOKEN = 000.
  412  0230  C9                      RET                          ;Return to caller.
  413  0231  2E 81        SYNTX3:	MVI	L,OFS_SYNTAX_PTR                      ;Reset pointer to syntax cntr/pntr and fetch
  414  0233  46                      MOV	B,M                      ;Position of next character after the line number
  415  0234  2E 82                   MVI	L,OFS_SCAN_PTR                   ;Change pntr to SCAN pntr storage location
  416  0236  70                      MOV	M,B                      ;Store address when SCAN takes up after line number
  417  0237  2E 82        SYNTX4:	MVI	L,OFS_SCAN_PTR                      ;Set pntr to SCAN pntr stomge location
  418  0239  CD A0 02                CALL	GETCHR                  ;Fetch the character pointed to by contents of the SCAN
  419  023C  CA 54 02                JZ	SYNTX6                    ;Pointer storage location. If character was ASCII code
  420  023F  FE BD                   CPI	0BDH                     ;For space, ignore. Else, compare character with "=" sign
  421  0241  CA 88 02                JZ	SYNTX7                    ;If is an equal sign, go set TOKEN for IMPLIED LET.
  422  0244  FE A8                   CPI	0A8H                     ;Else, compare character with left parenthesis " ( "
  423  0246  CA 8D 02                JZ	SYNTX8                    ;If left parenthesis, go set TOKEN for implied array LET
  424  0249  CD C8 02                CALL	CONCTS                  ;Otherwise, concatenate the character onto the string
  425                     ; MGA 4/2012 begin "fast SYNTX5" patch: 
  426                     ; the following patch doubles the overall speed of execution.  
  427                     ; It is similar to the approach taken on 8080 SCELBAL II in 1978 
  428                     ; it adhears to the rules for patches in issue 1 of SCELBAL update 
  429                     ;SYNTX6:   these four lines moved up w/o label
  430  024C  2E 82                   MVI	L,OFS_SCAN_PTR                   ;Set L to SCAN pointer storage location
  431                     ;           LHI \HB\OLDPG26        ;** Set H to page of SCAN pointer stomge location
  432                     ;MGA 4/2012 except LHI needed at original place, not here 
  433  024E  CD 03 03                CALL	LOOP                    ;Call routine to advance pntr & test for end of In buffer
  434  0251  C2 37 02                JNZ	SYNTX4                   ;Go back and add another character to SYMBOL BUFF
  435                     SYNTX6:   ; MGA 4/2012 label here 
  436                     
  437  0254  2E 83                   MVI	L,OFS_TOKEN_STORE                   ;Being constructed in the SYMBOL BUFFER. Now set
  438  0256  36 01                   MVI	M,001H                   ;Up TOKEN storage location to an initial value of 001.
  439  0258  26 17                   MVI	H,HIGH OLDPG27           ;** Set H to point to start of KEYWORD TABLE.
  440  025A  2E 00                   MVI	L,OFS_KEYWORD_TBL        ;Set L to point to start of KEYWORD TABLE.
  441  025C  16 16        SYNTX5:	MVI	D,HIGH OLDPG26              ;** Set D to page of SYMBOL BUFFER
  442  025E  1E 50                   MVI	E,OFS_SYMBOL_BUF                   ;Set E to start of SYMBOL BUFFER
  443  0260  CD DA 02                CALL	STRCP                   ;Compare char string presently in SYMBOL BUFFER
  444  0263  C8                      RZ                           ;With entry in KEYWORD TABLE. Exit if match.
  445  0264  CD EE 12                CALL	SWITCH                  ;TOKEN will be set to keyword found. Else, switch
  446  0267  2C           SYNTXL:	INR	L                           ;Pointers to get table address back and advance pntr to
  447  0268  7E                      MOV	A,M                      ;KEYWORD TABLE. Now look for start of next entry
  448  0269  E6 C0                   ANI	0C0H                     ;In KEYWORD TABLE by looking for (cc) byte which
  449  026B  C2 67 02                JNZ	SYNTXL                   ;Will NOT have a one in the two most sig. bits. Advance
  450  026E  CD EE 12                CALL	SWITCH                  ;Pntr til next entry found. Then switch pointers apin so
  451  0271  2E 83                   MVI	L,OFS_TOKEN_STORE                   ;Table pointer is in D&E. Put addr of TOKEN in L.
  452  0273  26 16                   MVI	H,HIGH OLDPG26           ;** And page of TOKEN in H. Fetch the value currently
  453  0275  46                      MOV	B,M                      ;In TOKEN and advance it to account for going on to
  454  0276  04                      INR	B                        ;The next entry in the KEYWORD TABLE.
  455  0277  70                      MOV	M,B                      ;Restore the updated TOKEN value back to storage.
  456  0278  CD EE 12                CALL	SWITCH                  ;Restore the keyword table pointer back to H&L.
  457  027B  78                      MOV	A,B                      ;Put TOKEN count in ACC.
  458  027C  FE 0D                   CPI	00DH                     ;See if have tested all entries in the keyword table.
  459  027E  C2 5C 02                JNZ	SYNTX5                   ;If not, continue checking the keyword table.
  460                     ;MGA 4/2012 3 of 4 lines removed below (keep LHI)
  461  0281  26 16                   MVI	H,HIGH OLDPG26           ;** Set H to page of SCAN pointer stomge location
  462                     ; MGA 4/2012 end of "fast SYNTX5" patch: 
  463  0283  2E 83                   MVI	L,OFS_TOKEN_STORE                   ;And search table for KEYWORD again. Unless reach
  464  0285  36 FF                   MVI	M,0FFH                   ;End of line input buffer. In which case set TOKEN=377
  465  0287  C9                      RET                          ;As an error indicator and exit to calling routine.
  466  0288  2E 83        SYNTX7:	MVI	L,OFS_TOKEN_STORE                      ;Set pointer to TOKEN storage register. Set TOKEN
  467  028A  36 0D                   MVI	M,00DH                   ;Equal to 015 when "=" sign found for IMPLIED LET.
  468  028C  C9                      RET                          ;Exit to calling routine.
  469  028D  2E 83        SYNTX8:	MVI	L,OFS_TOKEN_STORE                      ;Set pointer to TOKEN storage register. Set TOKEN
  470  028F  36 0E                   MVI	M,00EH                   ;Equal to 016 when "(" found for IMPLIED array LET.
  471  0291  C9                      RET                          ;Exit to calling routine.
  472                     
  473                                                       ;The following are subroutines used by SYNTAX and
  474                                                       ;other routines in SCELBAL.
  475                     
  476  0292  3E C2        BIGERR:	MVI	A,0C2H                      ;Load ASCII code for letters B and G to indicate BIG
  477  0294  0E C7                   MVI	C,0C7H                   ;ERROR (for when buffer, stack,etc., overflows).
  478  0296  CD 82 03     ERROR:	CALL	ECHO                        ;Call user provided display routine to print ASCII code
  479  0299  79                      MOV	A,C                      ;In accumulator. Transfer ASCII code from C to ACC
  480  029A  CD 82 03                CALL	ECHO                    ;And repeat to display error codes.
  481  029D  C3 D2 0A                JMP	FINERR                   ;Go cpmplete error message (AT LINE) as required.
  482  02A0  7E           GETCHR:	MOV	A,M                         ;Get pointer from memory location pointed to by H&L
  483  02A1  FE 50                   CPI	050H                     ;See if within range of line input buffer.
  484  02A3  F2 92 02                JP	BIGERR                    ;If not then have an overflow condition = error.
  485  02A6  6F                      MOV	L,A                      ;Else can use it as addr of character to fetch from the
  486  02A7  26 16                   MVI	H,HIGH OLDPG26           ;** LINE INPUT BUFFER by setting up H too.
  487  02A9  7E                      MOV	A,M                      ;Fetch the character from the line input buffer.
  488  02AA  FE A0                   CPI	0A0H                     ;See if it is ASCII code for space.
  489  02AC  C9                      RET                          ;Return to caller with flags set according to comparison.
  490  02AD  2E 50        CLESYM:	MVI	L,OFS_SYMBOL_BUF                      ;Set L to start of SYMBOL BUFFER.
  491  02AF  26 16                   MVI	H,HIGH OLDPG26           ;** Set H to page of SYMBOL BUFFER.
  492  02B1  36 00                   MVI	M,000H                   ;Place a zero byte at start of SYMBOL BUFFER.
  493  02B3  C9                      RET                          ;To effectively clear the buffer. Then exit to caller.
  494                     
  495                     
  496                                                       ;Subroutine to concatenate (append) a character to the
  497                                                       ;SYMBOL BUFFER. Character must be alphanumeric.
  498                     
  499  02B4  FE C1        CONCTA:	CPI	0C1H                        ;See if character code less than that for letter A.
  500  02B6  FA BE 02                JM	CONCTN                    ;If so, go see if it is numeric.
  501  02B9  FE DB                   CPI	0DBH                     ;See if character code greater than that for letter Z.
  502  02BB  FA C8 02                JM	CONCTS                    ;If not, have valid alphabetical character.
  503  02BE  FE B0        CONCTN:	CPI	0B0H                        ;Else, see if character in valid numeric range.
  504  02C0  FA D7 02                JM	CONCTE                    ;If not, have an error condition.
  505  02C3  FE BA                   CPI	0BAH                     ;Continue to check for valid number.
  506  02C5  F2 D7 02                JP	CONCTE                    ;If not, have an error condition.
  507  02C8  2E 50        CONCTS:	MVI	L,OFS_SYMBOL_BUF                      ;If character alphanumeric, can concatenate. Set pointer
  508  02CA  26 16                   MVI	H,HIGH OLDPG26           ;** To starting address of SYMBOL BUFFER.
  509  02CC  4E           CONCT1:	MOV	C,M                         ;Fetch old character count in SYMBOL BUFFER.
  510  02CD  0C                      INR	C                        ;Increment the value to account for adding new
  511  02CE  71                      MOV	M,C                      ;Character to the buffer. Restore updated (cc).
  512  02CF  47                      MOV	B,A                      ;Save character to be appended in register B.
  513  02D0  CD 1E 13                CALL	INDEXC                  ;Add (cc) to address in H & L to get new end of buffer
  514  02D3  70                      MOV	M,B                      ;Address and append the new character to buffer
  515  02D4  3E 00                   MVI	A,000H                   ;Clear the accumulator
  516  02D6  C9                      RET                          ;Exit to caller
  517  02D7  C3 6A 09     CONCTE:	JMP	SYNERR                      ;If character to be appended not alphanumeric, ERROR!
  518                     
  519                                                       ;Subroutine to compare
  520                                                       ;character strings pointed to by
  521                                                       ;register pairs D & E and H & L.
  522                     
  523  02DA  7E           STRCP:	MOV	A,M                          ;Fetch (cc) of first string.
  524  02DB  CD EE 12                CALL	SWITCH                  ;Switch pointers and fetch length of second string (cc)
  525  02DE  46                      MOV	B,M                      ;Into register B. Compare the lengths of the two strings.
  526  02DF  B8                      CMP	B                        ;If they are not the same
  527  02E0  C0                      RNZ                          ;Return to caller with flags set to non-zero condition
  528  02E1  CD EE 12                CALL	SWITCH                  ;Else, exchange the pointers back to first string.
  529  02E4  CD FF 02     STRCPL:	CALL	ADV                        ;Advance the pointer to string number 1 and fetch a
  530  02E7  7E                      MOV	A,M                      ;Character from that string into the accumulator.
  531  02E8  CD EE 12                CALL	SWITCH                  ;Now switch the pointers to string number 2.
  532  02EB  CD FF 02                CALL	ADV                     ;Advance the pointer in line number 2.
  533  02EE  BE           STRCPE:	CMP	M                           ;Compare char in stxing 1 (ACC) to string 2 (memory)
  534  02EF  C0                      RNZ                          ;If not equal, return to cauer with flags set to non-zero
  535  02F0  CD EE 12                CALL	SWITCH                  ;Else, exchange pointers to restore pntr to string 1
  536  02F3  05                      DCR	B                        ;Decrement the string length counter in register B
  537  02F4  C2 E4 02                JNZ	STRCPL                   ;If not finiahed, continue testing entire string
  538  02F7  C9                      RET                          ;If complete match, return with flag in zero condition
  539  02F8  7E           STRCPC:	MOV	A,M                         ;Fetch character pointed to by pointer to string 1
  540  02F9  CD EE 12                CALL	SWITCH                  ;Exchange pointer to examine string 2
  541  02FC  C3 EE 02                JMP	STRCPE                   ;Continue the string comparison loop
  542                     
  543                                                       ;Subroutine to advance the two byte
  544                                                       ;value in CPU registers H and L.
  545                     
  546  02FF  2C           ADV:	INR	L                              ;Advance value in register L.
  547  0300  C0                      RNZ                          ;If new value not zero, return to caller.
  548  0301  24                      INR	H                        ;Else must increment value in H
  549  0302  C9                      RET                          ;Before retuming to caller
  550                     
  551                                                       ;Subroutine to advance a buffer pointer
  552                                                       ;and test to see if the end of the buffer
  553                                                       ;has been reached.
  554                     
  555  0303  46           LOOP:	MOV	B,M                           ;Fetch memory location pointed to by H & L into B.
  556  0304  04                      INR	B                        ;Increment the value.
  557  0305  70                      MOV	M,B                      ;Restore it back to memory.
  558  0306  2E 00                   MVI	L,OFS_LINE_INP_BUF       ;Change pointer to start of INPUT LINE BUFFER
  559  0308  7E                      MOV	A,M                      ;Fetch buffer length (cc) value into the accumulator
  560  0309  05                      DCR	B                        ;Make value in B original value
  561  030A  B8                      CMP	B                        ;See if buffer length same as that in B
  562  030B  C9                      RET                          ;Return with flags yielding results of the comparison
  563                     
  564                                                       ;The following subroutine is used to
  565                                                       ;input characters from the system's
  566                                                       ;input device (such as a keyboard)
  567                                                       ;into the LINE INPUT BUFFER. Routine has limited
  568                                                       ;editing capability included.
  569                                                       ;(Rubout = delete previous character(s) entered.)
  570                     ;;; This label, STRIN:	should be location 03 014
  571  030C  0E 00        STRIN:	MVI	C,000H                       ;Initialize register C to zero.
  572  030E  CD 91 03     STRIN1:	CALL	CINPUT                     ;Call user provided device input subroutine to fetch one
  573  0311  FE FF                   CPI	0FFH                     ;Character from the input device. Is it ASCII code for
  574  0313  C2 25 03                JNZ	NOTDEL                   ;Rubout? Skip to next section if not rubout.
  575  0316  3E DC                   MVI	A,0DCH                   ;Else, load ASCII code for backslash into ACC.
  576  0318  CD 82 03                CALL	ECHO                    ;Call user display driver to present backslash as a delete
  577  031B  0D                      DCR	C                        ;Indicator. Now decrement the input character counter.
  578  031C  FA 0C 03                JM	STRIN                     ;If at beginning of line do NOT decrement H and L.
  579  031F  CD 74 03                CALL	DEC                     ;Else, decrement H & L line pointer to erase previous
  580  0322  C3 0E 03                JMP	STRIN1                   ;Entry, then go back for a new input.
  581  0325  FE 83        NOTDEL:	CPI	083H                        ;See if character inputted was'CONTROL C'
  582  0327  CA CB 0A                JZ	CTRLC                     ;If so, stop inputting and go back to the EXECutive
  583  032A  FE 8D                   CPI	08DH                     ;If not, see if character was carriage-return
  584  032C  CA 42 03                JZ	STRINF                    ;If so, have end of line of input
  585  032F  FE 8A                   CPI	08AH                     ;If not, see if character was line-feed
  586  0331  CA 0E 03                JZ	STRIN1                    ;If so, ignore the input, get another character
  587  0334  CD FF 02                CALL	ADV                     ;If none of the above, advance contents of H & L
  588  0337  0C                      INR	C                        ;Increment the character counter
  589  0338  77                      MOV	M,A                      ;Store the new character in the line input buffer
  590  0339  79                      MOV	A,C                      ;Put new character count in the accumulator
  591  033A  FE 50                   CPI	050H                     ;Make sure maximum buffer size not exceeded
  592  033C  F2 92 02                JP	BIGERR                    ;If buffer size exceeded, go display BG error message
  593  033F  C3 0E 03                JMP	STRIN1                   ;Else can go back to look for next input
  594  0342  41           STRINF:	MOV	B,C                         ;Transfer character count from C to B
  595  0343  CD 4B 03                CALL	SUBHL                   ;Subtract B from H & L to get starting address of
  596  0346  71                      MOV	M,C                      ;The string and place the character count (cc) there
  597  0347  CD 61 03                CALL	CRLF                    ;Provide a line ending CR & LF combination on the
  598  034A  C9                      RET                          ;Display device. Then exit to caller.
  599                     
  600                                                       ;Subroutine to subtract contents of CPU register B from
  601                                                       ;the two byte value in CPU registers H & L.
  602                     
  603  034B  7D           SUBHL:	MOV	A,L                          ;Load contents of register L into the accumulator
  604  034C  90                      SUB	B                        ;Subtract the contents of register B
  605  034D  6F                      MOV	L,A                      ;Restore the new value back to L
  606  034E  D0                      RNC                          ;If no carry, then no underflow. Exit to caller.
  607  034F  25                      DCR	H                        ;Else must also decrement contents of H.
  608  0350  C9                      RET                          ;Before retuming to caller.
  609                     
  610                                                       ;Subroutine to display a character string on the system's
  611                                                       ;display device.
  612                     
  613  0351  4E           TEXTC:	MOV	C,M                          ;Fetch (cc) from the first location in the buffer (H & L
  614  0352  7E                      MOV	A,M                      ;Pointing there upon entry) into register B and ACC.
  615  0353  A7                      ANA	A                        ;Test the character count value.
  616  0354  C8                      RZ                           ;No display if (cc) is zero.
  617  0355  CD FF 02     TEXTCL:	CALL	ADV                        ;Advance pointer to next location in buffer
  618  0358  7E                      MOV	A,M                      ;Fetch a character from the buffer into ACC
  619  0359  CD 82 03                CALL	ECHO                    ;Call the user's display driver subroutine
  620  035C  0D                      DCR	C                        ;Decrement the (cc)
  621  035D  C2 55 03                JNZ	TEXTCL                   ;If character counter not zero, continue display
  622  0360  C9                      RET                          ;Exit to caller when (cc) is zero.
  623                     
  624                                                       ;Subroutine to provide carriage-return and line-feed
  625                                                       ;combination to system's display device. Routine also
  626                                                       ;initializes a column counter to zero. Column counter
  627                                                       ;is used by selected output routines to count the num-
  628                                                       ;ber of characters that have been displayed on a line.
  629                     
  630  0361  3E 8D        CRLF:	MVI	A,08DH                        ;Load ASCII code for carriage-return into ACC
  631  0363  CD 82 03                CALL	ECHO                    ;Call user provided display driver subroutine
  632  0366  3E 8A                   MVI	A,08AH                   ;Load ASCII code for line-feed into ACC
  633  0368  CD 82 03                CALL	ECHO                    ;Call user provided display driver subroutine
  634  036B  2E 23                   MVI	L,OFS_COL_COUNTER                   ;Set L to point to COLUMN COUNTER storage location
  635  036D  26 01                   MVI	H,HIGH OLDPG1            ;** Set H to page of COLUMN COUNTER
  636  036F  36 01                   MVI	M,001H                   ;Initialize COLUMN COUNTER to a value of one
  637  0371  62                      MOV	H,D                      ;Restore H from D (saved by ECHO subroutine)
  638  0372  6B                      MOV	L,E                      ;Restore L from E (saved by ECHO subroutine)
  639  0373  C9                      RET                          ;Then exit to calling routine
  640                     
  641                                                       ;Subroutine to decrement double-byte value in CPU
  642                                                       ;registers H and L.
  643                     
  644  0374  2D           DEC:	DCR	L                              ;Decrement contents of L
  645  0375  2C                      INR	L                        ;Now increment to exercise CPU flags
  646  0376  C2 7A 03                JNZ	DECNO                    ;If L not presently zero, skip decrementing H
  647  0379  25                      DCR	H                        ;Else decrement H
  648  037A  2D           DECNO:	DCR	L                            ;Do the actual decrement of L
  649  037B  C9                      RET                          ;Return to caller
  650                     
  651                     
  652                                                       ;Subroutine to index the value in CPU registers H and L
  653                                                       ;by the contents of CPU register B.
  654                     
  655  037C  7D           INDEXB:	MOV	A,L                         ;Load L into the accumulator
  656  037D  80                      ADD	B                        ;Add B to that value
  657  037E  6F                      MOV	L,A                      ;Restore the new value to L
  658  037F  D0                      RNC                          ;If no carry,  return to caller
  659  0380  24                      INR	H                        ;Else, increment value in H
  660  0381  C9                      RET                          ;Before returning to caller
  661                     
  662                                                       ;The following subroutine is used to
  663                                                       ;display the ASCII encoded character in the ACC on the
  664                                                       ;system's display device. This routine calls a routine
  665                                                       ;labeled CINPUT which must be provided by the user to
  666                                                       ;actually drive the system's output device. The subroutine
  667                                                       ;below also increments an output column counter each time
  668                                                       ;it is used.
  669                     
  670  0382  54           ECHO:	MOV	D,H                           ;Save entry value of H in register D
  671  0383  5D                      MOV	E,L                      ;And save entry value of L in register E
  672  0384  2E 23                   MVI	L,OFS_COL_COUNTER                   ;Set L to point to COLUMN COUNTER storage location
  673  0386  26 01                   MVI	H,HIGH OLDPG1            ;** Set H to page of COLUMN COUNTER
  674  0388  46                      MOV	B,M                      ;Fetch the value in the COLUMN COUNTER
  675  0389  04                      INR	B                        ;And increment it for each character displayed
  676  038A  70                      MOV	M,B                      ;Restore the updated count in memory
  677  038B  CD 12 02                CALL	CPRINT                  ;tt Call the user's device driver subroutine
  678  038E  62                      MOV	H,D                      ;Restore entry value of H from D
  679  038F  6B                      MOV	L,E                      ;Restore entry value of L from E
  680  0390  C9                      RET                          ;Return to calling routine
  681  0391  C3 03 02     CINPUT:	JMP	CINP                        ;Reference to user defined input subroutine
  682                     
  683                     ;;; The label EVAL: SHOULD BE AT 03 224
  684  0394  2E 97        EVAL:	MVI	L,OFS_ARITH_STKPTR                        ;Load L with address of ARITHMETIC STACK pointer
  685  0396  26 01                   MVI	H,HIGH OLDPG1            ;** Set H to page of ARITHMETIC STACK pointer
  686  0398  36 94                   MVI	M,094H                   ;Initialize ARITH STACK pointer value to addr minus 4
  687  039A  2C                      INR	L                        ;Advance memory pointer to FUN/ARRAY STACK pntr
  688  039B  26 16                   MVI	H,HIGH OLDPG26           ;** Set H to page of FUN/ARRAY STACK pointer
  689  039D  36 00                   MVI	M,000H                   ;Initialize FUNIARRAY STACK pointer to start of stack
  690  039F  CD AD 02                CALL	CLESYM                  ;Initialize the SYMBOL BUFFER to empty condition
  691  03A2  2E 88                   MVI	L,OFS_OP_STKPTR                   ;Load L with address of OPERATOR STACK pointer
  692  03A4  36 00                   MVI	M,000H                   ;Initialize OPERATOR STACK pointer value
  693  03A6  2E BE                   MVI	L,OFS_EVAL_PTR                   ;Set L to address of EVAL pointer (start of expression)
  694  03A8  46                      MOV	B,M                      ;Fetch the EVAL pointer value into register B
  695  03A9  2E 80                   MVI	L,OFS_EVAL_CURRENT                   ;Set up a working pointer register in this location
  696  03AB  70                      MOV	M,B                      ;And initialize EVAL CURRENT pointer
  697  03AC  2E 80        SCAN1:	MVI	L,OFS_EVAL_CURRENT                       ;Load L with address of EVAL CURRENT pointer
  698  03AE  CD A0 02                CALL	GETCHR                  ;Fetch a character in the expression being evaluated
  699  03B1  CA C1 04                JZ	SCAN10                    ;If character is a space, jump out of this section
  700  03B4  FE AB                   CPI	0ABH                     ;See if character is a "+" sign
  701  03B6  C2 C0 03                JNZ	SCAN2                    ;If not, continue checking for an operator
  702  03B9  2E 7E                   MVI	L,OFS_PARSER_TOKEN                   ;If yes, set pointer to PARSER TOKEN storage location
  703  03BB  36 01                   MVI	M,001H                   ;Place TOKEN value for "+" sign in PARSER TOKEN
  704  03BD  C3 E9 03                JMP	SCANFN                   ;Go to PARSER subroutine entry point
  705  03C0  FE AD        SCAN2:	CPI	0ADH                         ;See if character is a minus ("-") sign
  706  03C2  C2 EF 03                JNZ	SCAN4                    ;If not, continue checking for an operator
  707  03C5  2E 50                   MVI	L,OFS_SYMBOL_BUF                   ;If yes, check the length of the symbol stored in the
  708  03C7  7E                      MOV	A,M                      ;SYMBOL BUFFER by fetching the (cc) byte
  709  03C8  A7                      ANA	A                        ;And testing to see if (cc) is zero
  710  03C9  C2 E5 03                JNZ	SCAN3                    ;If length not zero, then not a unary minus indicator
  711  03CC  2E 7E                   MVI	L,OFS_PARSER_TOKEN                   ;Else, check to see if last operator was a right parenthesi
  712  03CE  7E                      MOV	A,M                      ;By fetching the value in the PARSER TOKEN storage
  713  03CF  FE 07                   CPI	007H                     ;Location and seeing if it is token value for ")"
  714  03D1  CA E5 03                JZ	SCAN3                     ;If last operator was I')" then do not have a unary minus
  715  03D4  FE 03                   CPI	003H                     ;Check to see if last operator was C4*~2
  716  03D6  CA 6A 09                JZ	SYNERR                    ;If yes, then have a syntax error
  717  03D9  FE 05                   CPI	005H                     ;Check to see if last operator was exponentiation
  718  03DB  CA 6A 09                JZ	SYNERR                    ;If yes, then have a syntax error
  719  03DE  2E 50                   MVI	L,OFS_SYMBOL_BUF                   ;If none of the above, then minus sign is unary, put
  720  03E0  36 01                   MVI	M,001H                   ;Character string representing the
  721  03E2  2C                      INR	L                        ;Value zero in the SYMBOL BUFFER in string format
  722  03E3  36 B0                   MVI	M,0B0H                   ;(Character count (cc) followed by ASCII code for zero)
  723  03E5  2E 7E        SCAN3:	MVI	L,OFS_PARSER_TOKEN                       ;Set L to address of PARSER TOKEN storage location
  724  03E7  36 02                   MVI	M,002H                   ;Set PARSER TOKEN value for minus operator
  725  03E9  CD D4 04     SCANFN:	CALL	PARSER                     ;Call the PARSER subroutine to process current symbol
  726  03EC  C3 C1 04                JMP	SCAN10                   ;And operator. Then jump to continue processing.
  727  03EF  FE AA        SCAN4:	CPI	0AAH                         ;See if character fetched from expression is
  728  03F1  C2 FB 03                JNZ	SCAN5                    ;If not, continue checking for an operator
  729  03F4  2E 7E                   MVI	L,OFS_PARSER_TOKEN                   ;If yes, set pointer to PARSER TOKEN storage location
  730  03F6  36 03                   MVI	M,003H                   ;Place TOKEN value for "*" (multiplication) operator in
  731  03F8  C3 E9 03                JMP	SCANFN                   ;PARSER TOKEN and go to PARSER subroutine entry
  732  03FB  FE AF        SCAN5:	CPI	0AFH                         ;See if character fetched from expression is
  733  03FD  C2 07 04                JNZ	SCAN6                    ;If not, continue checking for an operator
  734  0400  2E 7E                   MVI	L,OFS_PARSER_TOKEN                   ;If yes, set pointer to PARSER TOKEN storage location
  735  0402  36 04                   MVI	M,004H                   ;Place TOKEN value for "/" (division) operator in
  736  0404  C3 E9 03                JMP	SCANFN                   ;PARSER TOKEN and go to PARSER subroutine entry
  737  0407  FE A8        SCAN6:	CPI	0A8H                         ;See if character fetched from expression is
  738  0409  C2 1B 04                JNZ	SCAN7                    ;If not, continue checking for an operator
  739  040C  2E 98                   MVI	L,OFS_FA_STKPTR                   ;If yes, load L with address of FUN/ARRAY STACK
  740  040E  46                      MOV	B,M                      ;Pointer. Fetch the value in the stack pointer. Increment
  741  040F  04                      INR	B                        ;It to indicate number of "(" operators encountered.
  742  0410  70                      MOV	M,B                      ;Restore the updated stack pointer back to memory
  743  0411  CD 40 07                CALL	FUNARR                  ;Call subroutine to process possible FUNCTION or
  744  0414  2E 7E                   MVI	L,OFS_PARSER_TOKEN                   ;ARRAY variable subscript. Ihen set pointer to
  745  0416  36 06                   MVI	M,006H                   ;PARSER TOKEN storage and set value for operator
  746  0418  C3 E9 03                JMP	SCANFN                   ;Go to PARSER subroutine entry point.
  747  041B  FE A9        SCAN7:	CPI	0A9H                         ;See if character fetched from expression is
  748  041D  C2 34 04                JNZ	SCAN8                    ;If not, continue checking for an operator
  749  0420  2E 7E                   MVI	L,OFS_PARSER_TOKEN                   ;If yes, load L with address of PARSER TOKEN
  750  0422  36 07                   MVI	M,007H                   ;Set PARSER TOKEN value to reflect ")"
  751  0424  CD D4 04                CALL	PARSER                  ;Call the  PARSER subroutine to process current symbol
  752                     	
  753  0427  CD 03 07                CALL	PRIGHT                  ;Call subroutine to handle FUNCTION or ARRAY
  754  042A  2E 98                   MVI	L,OFS_FA_STKPTR                   ;Load L with address of FUN/ARRAY STACK pointer
  755  042C  26 16                   MVI	H,HIGH OLDPG26           ;** Set H to page of FUN/ARRAY STACK pointer
  756  042E  46                      MOV	B,M                      ;Fetch the value in the stack pointer. Decrement it
  757  042F  05                      DCR	B                        ;To account for left parenthesis just processed.
  758  0430  70                      MOV	M,B                      ;Restore the updated value back to memory.
  759  0431  C3 C1 04                JMP	SCAN10                   ;Jump to continue processing expression.
  760  0434  FE DE        SCAN8:	CPI	0DEH                         ;See if character fetched from expression is " t
  761  0436  C2 40 04                JNZ	SCAN9                    ;If not, continue checking for an operator
  762  0439  2E 7E                   MVI	L,OFS_PARSER_TOKEN                   ;If yes, load L with address of PARSER TOKEN
  763  043B  36 05                   MVI	M,005H                   ;Put in value for exponentiation
  764  043D  C3 E9 03                JMP	SCANFN                   ;Go to PARSER subroutine entry point.
  765  0440  FE BC        SCAN9:	CPI	0BCH                         ;See if character fetched is the "less than" sign
  766  0442  C2 63 04                JNZ	SCAN11                   ;If not, continue checking for an operator
  767  0445  2E 80                   MVI	L,OFS_EVAL_CURRENT                   ;If yes, set L to the EVAL CURRENT pointer
  768  0447  46                      MOV	B,M                      ;Fetch the pointer
  769  0448  04                      INR	B                        ;Increment it to point to the next character
  770  0449  70                      MOV	M,B                      ;Restore the updated pointer value
  771  044A  CD A0 02                CALL	GETCHR                  ;Fetch the next character in the expression
  772  044D  FE BD                   CPI	0BDH                     ;Is the character the "= 9 $ sign?
  773  044F  CA A9 04                JZ	SCAN13                    ;If so, have 'less than or equal" combination
  774  0452  FE BE                   CPI	0BEH                     ;Is the character the "greater than" sign?
  775  0454  CA B7 04                JZ	SCAN15                    ;If so, have "less than or greater than" combination
  776  0457  2E 80                   MVI	L,OFS_EVAL_CURRENT                   ;Else character is not part of the operator. Set L back
  777  0459  46                      MOV	B,M                      ;To the EVAL CURRENT pointer. Fetch the pointer
  778  045A  05                      DCR	B                        ;Value and decriment it back one character in the
  779  045B  70                      MOV	M,B                      ;Expression. Restore the original pointer value.
  780  045C  2E 7E                   MVI	L,OFS_PARSER_TOKEN                   ;Have just the 'less than" operator. Set L to the
  781  045E  36 09                   MVI	M,009H                   ;PARSER TOKEN storage location and set the value for
  782  0460  C3 E9 03                JMP	SCANFN                   ;The 'less than" sign then go to PARSER entry point.
  783  0463  FE BD        SCAN11:	CPI	0BDH                        ;See if character fetched is the "= " sign
  784  0465  C2 86 04                JNZ	SCAN12                   ;If not, continue checking for an operator
  785  0468  2E 80                   MVI	L,OFS_EVAL_CURRENT                   ;If yes, set L to the EVAL CURRENT pointer
  786  046A  46                      MOV	B,M                      ;Fetch the pointer
  787  046B  04                      INR	B                        ;Increment it to point to the next character
  788  046C  70                      MOV	M,B                      ;Restore the updated pointer value
  789  046D  CD A0 02                CALL	GETCHR                  ;Fetch the next character in the expression
  790  0470  FE BC                   CPI	0BCH                     ;Is the character the "less than" sign?
  791  0472  CA A9 04                JZ	SCAN13                    ;If so, have "less than or equal" combination
  792  0475  FE BE                   CPI	0BEH                     ;Is the character the "greater than" sign?
  793  0477  CA B0 04                JZ	SCAN14                    ;If so, have "equal or greater than" combination
  794  047A  2E 80                   MVI	L,OFS_EVAL_CURRENT                   ;Else character is not part of the operator. Set L back
  795  047C  46                      MOV	B,M                      ;To the EVAL CURRENT pointer. Fetch the pointer
  796  047D  05                      DCR	B                        ;Value and decrement it back one character in the
  797  047E  70                      MOV	M,B                      ;Expression. Restore the original pointer value.
  798  047F  2E 7E                   MVI	L,OFS_PARSER_TOKEN                   ;Just have '~-- " operator. Set L to the PARSER TOKEN
  799  0481  36 0A                   MVI	M,00AH                   ;Storage location and set the value for the sign.
  800  0483  C3 E9 03                JMP	SCANFN                   ;Go to the PARSER entry point.
  801  0486  FE BE        SCAN12:	CPI	0BEH                        ;See if character fetched is the "greater than" sign
  802  0488  C2 BE 04                JNZ	SCAN16                   ;If not, go append the character to the SYMBOL BUFF
  803  048B  2E 80                   MVI	L,OFS_EVAL_CURRENT                   ;If so, set L to the EVAL CURRENT pointer
  804  048D  46                      MOV	B,M                      ;Fetch the pointer
  805  048E  04                      INR	B                        ;Increment it to point to the next character
  806  048F  70                      MOV	M,B                      ;Restore the updated pointer value
  807  0490  CD A0 02                CALL	GETCHR                  ;Fetch the next character in the expression
  808  0493  FE BC                   CPI	0BCH                     ;Is the character the "less than" sign?
  809  0495  CA B7 04                JZ	SCAN15                    ;If so, have "less than or greater than" combination
  810  0498  FE BD                   CPI	0BDH                     ;Is the character the "= " sign?
  811  049A  CA B0 04                JZ	SCAN14                    ;If so, have the "equal to or greater than " combination
  812  049D  2E 80                   MVI	L,OFS_EVAL_CURRENT                   ;Else character is not part of the operator. Set L back
  813  049F  46                      MOV	B,M                      ;To the EVAL CURRENT pointer. Fetch the pointer
  814  04A0  05                      DCR	B                        ;Value and decrement it back one character in the
  815  04A1  70                      MOV	M,B                      ;Expression. Restore the original pointer value.
  816  04A2  2E 7E                   MVI	L,OFS_PARSER_TOKEN                   ;Have just the "greater than" operator. Set L to the
  817  04A4  36 0B                   MVI	M,00BH                   ;PARSER TOKEN storage location and set the value for
  818  04A6  C3 E9 03                JMP	SCANFN                   ;The "greater than" sign then go to PARSER entry
  819  04A9  2E 7E        SCAN13:	MVI	L,OFS_PARSER_TOKEN                      ;When have 'less than or equal" combination set L to
  820  04AB  36 0C                   MVI	M,00CH                   ;PARSER TOKEN storage location and set the value.
  821  04AD  C3 E9 03                JMP	SCANFN                   ;Then go to the PARSER entry point.
  822  04B0  2E 7E        SCAN14:	MVI	L,OFS_PARSER_TOKEN                      ;When have "equal to or greater than" combination set L
  823  04B2  36 0D                   MVI	M,00DH                   ;To PARSER TOKEN storage location and set the value.
  824  04B4  C3 E9 03                JMP	SCANFN                   ;Then go to the PARSER entry point.
  825  04B7  2E 7E        SCAN15:	MVI	L,OFS_PARSER_TOKEN                      ;When have 'less than or greater than" combination set
  826  04B9  36 0E                   MVI	M,00EH                   ;L to PARSER TOKEN storage location and set value.
  827  04BB  C3 E9 03                JMP	SCANFN                   ;Then go to the PARSER entry point.
  828  04BE  CD C8 02     SCAN16:	CALL	CONCTS                     ;Concatenate the character to the SYMBOL BUFFER
  829  04C1  2E 80        SCAN10:	MVI	L,OFS_EVAL_CURRENT                      ;Set L to the EVAL CURRENT pointer storage location
  830  04C3  26 16                   MVI	H,HIGH OLDPG26           ;** Set H to page of EVAL CURRENT pointer
  831  04C5  46                      MOV	B,M                      ;Fetch the EVAL CURRENT pointer value into B
  832  04C6  04                      INR	B                        ;Increment the pointer value to point to next character
  833  04C7  70                      MOV	M,B                      ;In the expression and restore the updated value.
  834  04C8  2E BF                   MVI	L,OFS_EVAL_FINISH                   ;Set L to EVAL FINISH storage location.
  835  04CA  7E                      MOV	A,M                      ;Fetch the EVAL FINISH value into the accumulator.
  836  04CB  05                      DCR	B                        ;Set B to last character processed in the expression.
  837  04CC  B8                      CMP	B                        ;See if last character was at EVAL FINISH location.
  838  04CD  C2 AC 03                JNZ	SCAN1                    ;If not, continue processing the expression. Else, jump
  839  04D0  C3 C0 19                JMP	PARSEP                   ;To final evaluation procedure and test.  (Directs routine
  840  04D3  76                      HLT                          ;To a dislocated section.) Safety Halt in unused byte.
  841  04D4  2E 50        PARSER:	MVI	L,OFS_SYMBOL_BUF                      ;Load L with starting address of SYMBOL BUFFER
  842  04D6  26 16                   MVI	H,HIGH OLDPG26           ;** Load H with page of SYMBOL BUFFER
  843  04D8  7E                      MOV	A,M                      ;Fetch the (cc) for  contents of SYMBOL BUFFER
  844  04D9  A7                      ANA	A                        ;Into the ACC and see if buffer is  empty
  845  04DA  CA 99 05                JZ	PARSE                     ;If empty then no need to convert contents
  846  04DD  2C                      INR	L                        ;If not empty, advance buffer pointer
  847  04DE  7E                      MOV	A,M                      ;Fetch the first character in the buffer
  848  04DF  FE AE                   CPI	0AEH                     ;See if it is ASCII code for decimal sign
  849  04E1  CA EE 04                JZ	PARNUM                    ;If yes, consider contents of buffer to be a number
  850  04E4  FE B0                   CPI	0B0H                     ;If not decimal sign, see if first character represents
  851  04E6  FA 1B 05                JM	LOOKUP                    ;A deciinal digit, if not, should have a variable
  852  04E9  FE BA                   CPI	0BAH                     ;Continue to test for a decimal digit
  853  04EB  F2 1B 05                JP	LOOKUP                    ;If not, go look up the variable nwne
  854  04EE  2D           PARNUM:	DCR	L                           ;If SYMBOL BUFFER contains number, decrement
  855  04EF  7E                      MOV	A,M                      ;Buffer pointer back to (cc) and fetch it to ACC
  856  04F0  FE 01                   CPI	001H                     ;See if length of string in buffer is just one
  857  04F2  CA 05 05                JZ	NOEXPO                    ;If so, cannot have number with scientific notation
  858  04F5  85                      ADD	L                        ;If not, add length to buffer pointer to
  859  04F6  6F                      MOV	L,A                      ;Point to last character in the buffer
  860  04F7  7E                      MOV	A,M                      ;Fetch the last character in buffer and see if it
  861  04F8  FE C5                   CPI	0C5H                     ;Represents letter E for Exponent
  862  04FA  C2 05 05                JNZ	NOEXPO                   ;If not, cannot have number with scientific notation
  863  04FD  2E 80                   MVI	L,OFS_EVAL_CURRENT                   ;If yes, have part of a scientific number, set pointer to
  864  04FF  CD A0 02                CALL	GETCHR                  ;Get the operator that follows the E and append it to
  865  0502  C3 C8 02                JMP	CONCTS                   ;The SYMBOL BUFFER and return to EVAL routine
  866  0505  2E 97        NOEXPO:	MVI	L,OFS_ARITH_STKPTR                      ;Load L with address of ARITHMETIC STACK pointer
  867  0507  26 01                   MVI	H,HIGH OLDPG1            ;** Load H with page of ARITHMETIC STACK pointer
  868  0509  7E                      MOV	A,M                      ;Fetch AS pointer value to ACC and add four to account
  869  050A  C6 04                   ADI	004H                     ;For the number of bytes required to store a number in
  870  050C  77                      MOV	M,A                      ;Floating point format. Restore pointer to mernory.
  871  050D  6F                      MOV	L,A                      ;Then, change L to point to entry position in the AS
  872  050E  CD AD 12                CALL	FSTORE                  ;Place contents of the FPACC onto top of the AS
  873  0511  2E 50                   MVI	L,OFS_SYMBOL_BUF                   ;Change L to point to start of the SYMBOL BUFFER
  874  0513  26 16                   MVI	H,HIGH OLDPG26           ;** Set H to page of the SYMBOL BUFFER
  875  0515  CD 24 13                CALL	DINPUT                  ;Convert number in the buffer to floating point format
  876  0518  C3 99 05                JMP	PARSE                    ;In the FPACC then jump to check operator sign.
  877  051B  2E F8        LOOKUP:	MVI	L,OFS_LOOKUP_CNT                      ;Load L with address of LOOK-UP COUNTER
  878  051D  26 16                   MVI	H,HIGH OLDPG26           ;** Load H with page of the counter
  879  051F  36 00                   MVI	M,000H                   ;Initialize the counter to zero
  880  0521  2E 50                   MVI	L,OFS_SYMBOL_BUF                   ;Load L with starting address of the SYMBOL BUFFER
  881  0523  16 17                   MVI	D,HIGH OLDPG27           ;** Load D with page of the VARIABLES TABLE
  882  0525  1E 88                   MVI	E,OFS_VARIABLES_TBL                   ;Load E with start of the VARL433LES TABLE
  883  0527  7E                      MOV	A,M                      ;Fetch the (cc) for the string in the SYMBOL BUFFER
  884  0528  FE 01                   CPI	001H                     ;See if the name length is just one character. If not,
  885  052A  C2 31 05                JNZ	LOOKU1                   ;Should be two so proceed to look-up routine. Else,
  886  052D  2E 52                   MVI	L,OFS_SYMBOL_CHAR2                   ;Change L to second character byte in the buffer and set
  887  052F  36 00                   MVI	M,000H                   ;It to zero to provide compatibility with entries in table
  888  0531  2E 51        LOOKU1:	MVI	L,OFS_SYMBOL_CHAR1                      ;Load L with addr of first character in the SYMBOL
  889  0533  26 16                   MVI	H,HIGH OLDPG26           ;** BUFFER. Set H to page of the SYMBOL BUFFER.
  890  0535  CD EE 12                CALL	SWITCH                  ;Exchange contents of D&E with H&L so that can
  891  0538  7E                      MOV	A,M                      ;Fetch the first character of a name in the VARIABLES
  892  0539  2C                      INR	L                        ;TABLE. Advance the table pointer and save the
  893  053A  46                      MOV	B,M                      ;Second byte of name in B. Then advance the pointer
  894  053B  2C                      INR	L                        ;Again to reach first bvte of floating point forrnatted
  895  053C  CD EE 12                CALL	SWITCH                  ;Number in table. Now exchange D&E with H&L and
  896  053F  BE                      CMP	M                        ;Compare first byte in table against first char in buffer
  897  0540  C2 49 05                JNZ	LOOKU2                   ;If not the same, go try next entry in table. If same,
  898  0543  2C                      INR	L                        ;Advance pointer to next char in buffer. Transfer the
  899  0544  78                      MOV	A,B                      ;Character in B (second byte in table entry) to the ACC
  900  0545  BE                      CMP	M                        ;Compare it against second character in the buffer.
  901  0546  CA 81 05                JZ	LOOKU4                    ;If match, have found the name in the VARIABLES tbl.
  902  0549  CD AE 06     LOOKU2:	CALL	AD4DE                      ;Call subroutine to add four to the pointer in D&E to
  903  054C  2E F8                   MVI	L,OFS_LOOKUP_CNT                   ;Advance the table pointer over value bytes. Then set
  904  054E  26 16                   MVI	H,HIGH OLDPG26           ;** Up H and L to point to LOOK-UP COUNTER.
  905  0550  46                      MOV	B,M                      ;Fetch counter value (counts number of entries tested
  906  0551  04                      INR	B                        ;In the VARIABLES TABLE), increment it
  907  0552  70                      MOV	M,B                      ;And restore it back to meynory
  908  0553  2E 3F                   MVI	L,OFS_SYMVAR_CNT                   ;Load L with address of SYMBOL VARIABLES counter
  909  0555  26 17                   MVI	H,HIGH OLDPG27           ;** Do same for H. (Counts number of names in table.)
  910  0557  78                      MOV	A,B                      ;Place LOOK-UP COUNTER value in the accumulator.
  911  0558  BE                      CMP	M                        ;Compare it with number of entries in the table.
  912  0559  C2 31 05                JNZ	LOOKU1                   ;If have not reached end of table, keep looking for name.
  913  055C  2E 3F                   MVI	L,OFS_SYMVAR_CNT                   ;If reach end of table without match, need to add name
  914  055E  26 17                   MVI	H,HIGH OLDPG27           ;** To table. First set H & L to the SYMBOL
  915  0560  46                      MOV	B,M                      ;VARIABLES counter. Fetch the counter value and
  916  0561  04                      INR	B                        ;Increment to account for new name being added to the
  917  0562  70                      MOV	M,B                      ;Table. Restore the updated count to meinory. Also,
  918  0563  78                      MOV	A,B                      ;Move the new counter value to the accumulator and
  919  0564  FE 15                   CPI	015H                     ;Check to see that table size is not exceeded. If try to
  920  0566  F2 92 02                JP	BIGERR                    ;Go over 20 (decirnal) entries then have BIG error.
  921  0569  2E 51                   MVI	L,OFS_SYMBOL_CHAR1                   ;Else, set L to point to first character in the SYMBOL
  922  056B  26 16                   MVI	H,HIGH OLDPG26           ;** BUFFER and set H to proper page. Set the number
  923  056D  06 02                   MVI	B,002H                   ;Of bytes to be transferred into register B as a counter.
  924  056F  CD 0B 11                CALL	MOVEIT                  ;Move the symbol name from the buffer to the
  925  0572  6B                      MOV	L,E                      ;VARIABLES TABLE. Now set up H & L with value
  926  0573  62                      MOV	H,D                      ;Contained in D & E after moving ops (points to first
  927  0574  AF                      XRA	A                        ;Byte of the value to be associated with the symbol
  928  0575  77                      MOV	M,A                      ;Name.) Clear the accumulator and place zero in all four
  929  0576  2C                      INR	L                        ;Bytes associated with the variable name entered
  930  0577  77                      MOV	M,A                      ;In the VARIABLES TABLE
  931  0578  2C                      INR	L                        ;In order to
  932  0579  77                      MOV	M,A                      ;Assign an
  933  057A  2C                      INR	L                        ;Initial value
  934  057B  77                      MOV	M,A                      ;To the variable narne
  935  057C  7D                      MOV	A,L                      ;Then transfer the address in L to the acc'umulator
  936  057D  D6 04                   SUI	004H                     ;Subtract four to reset the pointer to start of zeroing ops
  937  057F  5F                      MOV	E,A                      ;Restore the address in D & E to be in same state as if
  938  0580  54                      MOV	D,H                      ;Name was found in the table in the LOOKUP routine
  939  0581  CD CF 12     LOOKU4:	CALL	SAVEHL                     ;Save current address to VARIABLES TABLE
  940  0584  2E 97                   MVI	L,OFS_ARITH_STKPTR                   ;Load L with address of ARITHMETIC STACK pointer
  941  0586  26 01                   MVI	H,HIGH OLDPG1            ;** Load H with page of the pointer
  942  0588  7E                      MOV	A,M                      ;Fetch the AS pointer value to the accumulator
  943  0589  C6 04                   ADI	004H                     ;Add four to account for next floating point forrnatted
  944  058B  77                      MOV	M,A                      ;Number to be stored in the stack. Restore the stack
  945  058C  6F                      MOV	L,A                      ;Pointer to memory and set it up in register L too.
  946  058D  CD AD 12                CALL	FSTORE                  ;Place the value in the FPACC on the top of the
  947  0590  CD DF 12                CALL	RESTHL                  ;ARITHMETIC STACK. Restore the VARIABLES
  948  0593  CD EE 12                CALL	SWITCH                  ;TABLE pointer to H&L and move it to D&E. Now load
  949  0596  CD A4 12                CALL	FLOAD                   ;The VARIABLE value from the table to the FPACC.
  950  0599  CD AD 02     PARSE:	CALL	CLESYM                      ;Clear the SYMBOL BUFFER
  951  059C  2E 7E                   MVI	L,OFS_PARSER_TOKEN                   ;Load L with address of PARSER TOKEN VALUE
  952  059E  7E                      MOV	A,M                      ;And fetch the token value into the accumulator
  953  059F  FE 07                   CPI	007H                     ;Is it token value for right parenthesis ")" ? If so, have
  954  05A1  CA DA 05                JZ	PARSE2                    ;Special case where must perforin ops til find a "(" !
  955  05A4  C6 A0                   ADI	0A0H                     ;Else, fon-n address to HEIRARCHY IN table and
  956  05A6  6F                      MOV	L,A                      ;Set L to point to HEIRARCHY IN VALUE in the table
  957  05A7  46                      MOV	B,M                      ;Fetch the heirarchy value from the table to register B
  958  05A8  2E 88                   MVI	L,OFS_OP_STKPTR                   ;Set L to OPERATOR STACK pointer storage location
  959  05AA  4E                      MOV	C,M                      ;Fetch the OS pointer into CPU register C
  960  05AB  CD 1E 13                CALL	INDEXC                  ;Add OS pointer to address of OS pointer storage loc
  961  05AE  7E                      MOV	A,M                      ;Fetch the token value for the operator at top of the OS
  962  05AF  C6 AF                   ADI	0AFH                     ;And form address to HEIRARCHY OUT table
  963  05B1  6F                      MOV	L,A                      ;Set L to point to HEIRARCHY OUT VALUE in the
  964  05B2  78                      MOV	A,B                      ;Table. Move the HEIRARCHY IN value to the ACC.
  965  05B3  BE                      CMP	M                        ;Compare the HEIRARCHY IN with the HEIRARCHY
  966  05B4  CA C7 05                JZ	PARSE1                    ;OUT value. If heirarchy of current operator equal to or
  967  05B7  FA C7 05                JM	PARSE1                    ;Less than operator on top of OS stack, perfo
  968  05BA  2E 7E                   MVI	L,OFS_PARSER_TOKEN                   ;Operation indicated in top of OS stack. Else, fetch the
  969  05BC  46                      MOV	B,M                      ;Current operator token value into register B.
  970  05BD  2E 88                   MVI	L,OFS_OP_STKPTR                   ;Load L with address of the OPERATOR STACK pntr
  971  05BF  4E                      MOV	C,M                      ;Fetch the stack pointer value
  972  05C0  0C                      INR	C                        ;Increment it to account for new entry on the stack
  973  05C1  71                      MOV	M,C                      ;Restore the stack pointer value to memory
  974  05C2  CD 1E 13                CALL	INDEXC                  ;For in pointer to next entry in OPERATOR STACK
  975  05C5  70                      MOV	M,B                      ;Place the current operator token value on top of the OS
  976  05C6  C9                      RET                          ;Exit back to the EVAL routine.
  977  05C7  2E 88        PARSE1:	MVI	L,OFS_OP_STKPTR                      ;Load L with address of the OPERATOR STACK pntr
  978  05C9  7E                      MOV	A,M                      ;Fetch the stack pointer value to the accumulator
  979  05CA  85                      ADD	L                        ;Add in the value of the stack pointer address to form
  980  05CB  6F                      MOV	L,A                      ;Address that points to top entry in the OS
  981  05CC  7E                      MOV	A,M                      ;Fetch the token value at the top of the OS to the ACC
  982  05CD  A7                      ANA	A                        ;Check to see if the token value is zero for end of stack
  983  05CE  C8                      RZ                           ;Exit back to the EVAL routine if stack empty
  984  05CF  2E 88                   MVI	L,OFS_OP_STKPTR                   ;Else, reset L to the OS pointer storage location
  985  05D1  4E                      MOV	C,M                      ;Fetch the pointer value
  986  05D2  0D                      DCR	C                        ;Decrement it to account for operator rernoved from
  987  05D3  71                      MOV	M,C                      ;The OPERATOR STACK and restore the pointer value
  988  05D4  CD F4 05                CALL	FPOPER                  ;Perform the operation obtained from the top of the OS
  989  05D7  C3 99 05                JMP	PARSE                    ;Continue to compare current operator against top of OS
  990  05DA  2E 88        PARSE2:	MVI	L,OFS_OP_STKPTR                      ;Load L with address of the OPERATOR STACK pntr
  991  05DC  26 16                   MVI	H,HIGH OLDPG26           ;** Load H with page of the pointer
  992  05DE  7E                      MOV	A,M                      ;Fetch the stack pointer value to the accumulator
  993  05DF  85                      ADD	L                        ;Add in the value of the stack pointer address to form
  994  05E0  6F                      MOV	L,A                      ;Address that points to top entry in the OS
  995  05E1  7E                      MOV	A,M                      ;Fetch the token value at the top of the 0 S to the ACC
  996  05E2  A7                      ANA	A                        ;Check to see if the token value is zero for end of stack
  997  05E3  CA 44 06                JZ	PARNER                    ;If end of stack, then have a parenthesis error condx
  998  05E6  2E 88                   MVI	L,OFS_OP_STKPTR                   ;Else, reset L to the OS pointer storage location
  999  05E8  4E                      MOV	C,M                      ;Fetch the pointer value
 1000  05E9  0D                      DCR	C                        ;Decrement it to account for operator removed from
 1001  05EA  71                      MOV	M,C                      ;The OPERATOR STACK and restore the pointer value
 1002  05EB  FE 06                   CPI	006H                     ;Check to see if token value is "(" to close parenthesis
 1003  05ED  C8                      RZ                           ;If so, exit back to EVAL routine.
 1004  05EE  CD F4 05                CALL	FPOPER                  ;Else, perforin the op obtained from the top of the OS
 1005  05F1  C3 DA 05                JMP	PARSE2                   ;Continue to process data in parenthesis
 1006  05F4  2E F9        FPOPER:	MVI	L,OFS_TEMP_OP                      ;Load L with address of TEMP OP storage location
 1007  05F6  26 16                   MVI	H,HIGH OLDPG26           ;** Load H with page of TEMP OP storage location
 1008  05F8  77                      MOV	M,A                      ;Store OP (from top of OPERATOR STACK)
 1009  05F9  2E 97                   MVI	L,OFS_ARITH_STKPTR                   ;Change L to address of ARff HMETIC STACK pointer
 1010  05FB  26 01                   MVI	H,HIGH OLDPG1            ;** Load H with page of AS pointer
 1011  05FD  7E                      MOV	A,M                      ;Fetch AS pointer value into ACC
 1012  05FE  6F                      MOV	L,A                      ;Set L to top of ARITHMETIC STACK
 1013  05FF  CD B6 12                CALL	OPLOAD                  ;Transfer number from ARffHMETIC STACK to FPOP
 1014  0602  2E 97                   MVI	L,OFS_ARITH_STKPTR                   ;Restore pointer to AS pointer
 1015  0604  7E                      MOV	A,M                      ;Fetch the pointer value to the ACC and subtract four
 1016  0605  D6 04                   SUI	004H                     ;To remove top value from the ARITHMETIC STACK
 1017  0607  77                      MOV	M,A                      ;Restore the updated AS pointer to memory
 1018  0608  2E F9                   MVI	L,OFS_TEMP_OP                   ;Set L to address of TEMP OP storage location
 1019  060A  26 16                   MVI	H,HIGH OLDPG26           ;** Set H to page of TEMP OP storage location
 1020  060C  7E                      MOV	A,M                      ;Fetch the operator token value to the ACC
 1021  060D  FE 01                   CPI	001H                     ;Find out which kind of operation indicated
 1022  060F  CA 89 10                JZ	FPADD                     ;Perforn addition if have plus operator
 1023  0612  FE 02                   CPI	002H                     ;If not plus, see if minus
 1024  0614  CA 1A 11                JZ	FPSUB                     ;Perform subtraction if have minus operator
 1025  0617  FE 03                   CPI	003H                     ;If not minus, see if multiplication
 1026  0619  CA 26 11                JZ	FPMULT                    ;Perform multiplication if have multiplication operator
 1027  061C  FE 04                   CPI	004H                     ;If not multiplication, see if division
 1028  061E  CA D2 11                JZ	FPDIV                     ;Perform division if have division operator
 1029  0621  FE 05                   CPI	005H                     ;If not division, see if exponentiation
 1030  0623  CA B3 06                JZ	INTEXP                    ;Perform exponentiation if have exponentiation operator
 1031  0626  FE 09                   CPI	009H                     ;If not exponentiation, see if "less than" operator
 1032  0628  CA 51 06                JZ	LT                        ;Perform compaison for "less than" op if indicated
 1033  062B  FE 0A                   CPI	00AH                     ;If not 'less than" see if have "equal" operator
 1034  062D  CA 5E 06                JZ	EQ                        ;Perforin comparison for "equal" op if indicated
 1035  0630  FE 0B                   CPI	00BH                     ;If not "equal" see if have "greater than" operator
 1036  0632  CA 6B 06                JZ	GT                        ;Perform comparison for "greater than" op if indicated
 1037  0635  FE 0C                   CPI	00CH                     ;If not "'greater than" see if have 'less than or equal" op
 1038  0637  CA 7B 06                JZ	LE                        ;Perform comparison for the combination op if indicated
 1039  063A  FE 0D                   CPI	00DH                     ;See if have "equal to or greater than" operator
 1040  063C  CA 8B 06                JZ	GE                        ;Perform comparison for the combination op if indicated
 1041  063F  FE 0E                   CPI	00EH                     ;See if have "less than or greater than" operator
 1042  0641  CA 98 06                JZ	NE                        ;Perform comparison for the combination op if indicated
 1043  0644  2E 98        PARNER:	MVI	L,OFS_FA_STKPTR                      ;If cannot find operator, expression is not balanced
 1044  0646  26 16                   MVI	H,HIGH OLDPG26           ;** Set H and L to address of F/A STACK pointer
 1045  0648  36 00                   MVI	M,000H                   ;Clear the F/A STACK pointer to re-initialize
 1046  064A  3E C9                   MVI	A,0C9H                   ;Load ASCII code for letter I into the accumulator
 1047  064C  0E A8                   MVI	C,0A8H                   ;And code for "(" character into register C
 1048  064E  C3 96 02                JMP	ERROR                    ;Go display 1( for "Imbalanced Parenthesis") error msg
 1049  0651  CD 1A 11     LT:	CALL	FPSUB                          ;Subtract contents of FPACC from FPOP to compare
 1050  0654  2E 56                   MVI	L,OFS_FPACC_MSW                   ;Set L to point to the MSW of the FPACC (Contains
 1051  0656  7E                      MOV	A,M                      ;Result of the subtraction.) Fetch the MSW of the
 1052  0657  A7                      ANA	A                        ;FPACC to the accumulator and test to see if result is
 1053  0658  FA A2 06                JM	CTRUE                     ;Positive or negative. Set up the FPACC as a function
 1054  065B  C3 A7 06                JMP	CFALSE                   ;Of the result obtained.
 1055  065E  CD 1A 11     EQ:	CALL	FPSUB                          ;Subtract contents of FPACC from FPOP to compare
 1056  0661  2E 56                   MVI	L,OFS_FPACC_MSW                   ;Set L to point to the MSW of the FPACC (Contains
 1057  0663  7E                      MOV	A,M                      ;Result of the subtraction.) Fetch the MSW of the
 1058  0664  A7                      ANA	A                        ;FPACC to the accumulator and test to see if result is
 1059  0665  CA A2 06                JZ	CTRUE                     ;Equal. Set up the FPACC as a function
 1060  0668  C3 A7 06                JMP	CFALSE                   ;Of the result obtained.
 1061  066B  CD 1A 11     GT:	CALL	FPSUB                          ;Subtract contents of FPACC from FPOP to compare
 1062  066E  2E 56                   MVI	L,OFS_FPACC_MSW                   ;Set L to point to the MSW of the FPACC (Contains
 1063  0670  7E                      MOV	A,M                      ;Result of the subtraction.) Fetch the MSW of the
 1064  0671  A7                      ANA	A                        ;FPACC to the accumulator and test to see if result is
 1065  0672  CA A7 06                JZ	CFALSE                    ;Positive, Negative, or Equal. Set up the FPACC
 1066  0675  F2 A2 06                JP	CTRUE                     ;As a function
 1067  0678  C3 A7 06                JMP	CFALSE                   ;Of the result obtained.
 1068  067B  CD 1A 11     LE:	CALL	FPSUB                          ;Subtract contents of FPACC from FPOP to compare
 1069  067E  2E 56                   MVI	L,OFS_FPACC_MSW                   ;Set L to point to the MSW of the FPACC (Contains
 1070  0680  7E                      MOV	A,M                      ;Result of the subtraction.) Fetch the MSW of the
 1071  0681  A7                      ANA	A                        ;FPACC to the accumulator and test to see if result is
 1072  0682  CA A2 06                JZ	CTRUE                     ;Positive, Negative, or Equal. Set up the FPACC
 1073  0685  FA A2 06                JM	CTRUE                     ;As a function
 1074  0688  C3 A7 06                JMP	CFALSE                   ;Of the result obtained
 1075  068B  CD 1A 11     GE:	CALL	FPSUB                          ;Submit contents of FPACC from FPOP to compare
 1076  068E  2E 56                   MVI	L,OFS_FPACC_MSW                   ;Set L to point to the MSW of the FPACC (Contains
 1077  0690  7E                      MOV	A,M                      ;Result of the subtraction.) Fetch the MSW of the
 1078  0691  A7                      ANA	A                        ;FPACC to the accumulator and test to see if result is
 1079  0692  F2 A2 06                JP	CTRUE                     ;Positive or Negative. Set up the FPACC
 1080  0695  C3 A7 06                JMP	CFALSE                   ;As a function of the result obtained
 1081  0698  CD 1A 11     NE:	CALL	FPSUB                          ;Subtract contents of FPACC from FPOP to compare
 1082  069B  2E 56                   MVI	L,OFS_FPACC_MSW                   ;Set L to point to the MSW of the FPACC (Contains
 1083  069D  7E                      MOV	A,M                      ;Result of the subtraction.) Fetch the MSW of the
 1084  069E  A7                      ANA	A                        ;FPACC to the accumulator and test to see if result is
 1085  069F  CA A7 06                JZ	CFALSE                    ;Equal. Set up the FPACC as a function of the result.
 1086                     CTRUE:
 1087  06A2  2E 04        FPONE:	MVI	L,OFS_FP_CONST_1                       ;Load L with address of floating point value +1.0
 1088  06A4  C3 A4 12                JMP	FLOAD                    ;Load FPACC with value +1.0 and exit to caller
 1089  06A7  2E 57        CFALSE:	MVI	L,OFS_FPACC_EXP                      ;Load L with address of FPACC Exponent register
 1090  06A9  36 00                   MVI	M,000H                   ;Set the FPACC Exponent to zero and then set the
 1091  06AB  C3 29 10                JMP	FPZERO                   ;Mantissa portion of the FPACC to zero. Exit to caller.
 1092  06AE  7B           AD4DE:	MOV	A,E                          ;Subroutine to add four to the value in register E.
 1093  06AF  C6 04                   ADI	004H                     ;Move contents of E to the ACC and add four.
 1094  06B1  5F                      MOV	E,A                      ;Restore the updated value back to register E.
 1095  06B2  C9                      RET                          ;Return to the calling routine.
 1096  06B3  2E 56        INTEXP:	MVI	L,OFS_FPACC_MSW                      ;Load L with address of WSW of FPACC (Floating Point
 1097  06B5  26 01                   MVI	H,HIGH OLDPG1            ;** ACCumulator). Load H with page of FPACC.
 1098  06B7  7E                      MOV	A,M                      ;Fetch MSW of the FPACC into the accumulator.
 1099  06B8  2E 03                   MVI	L,OFS_EXP_TEMP                   ;Load L with address of EXP TEMP storage location
 1100  06BA  77                      MOV	M,A                      ;Store the FPACC MSW value in EXP TEMP location
 1101  06BB  A7                      ANA	A                        ;Test contents of the MSW of the FPACC. ff zero, then
 1102  06BC  CA A2 06                JZ	FPONE                     ;Set FPACC equal to +1.0 (any nr to zero power = 1.0!)
 1103  06BF  FC 82 10                CM	FPCOMP                    ;If MSW indicates negative number, complement
 1104  06C2  CD 00 10                CALL	FPFIX                   ;The FPACC. Then convert floating point number to
 1105  06C5  2E 54                   MVI	L,OFS_FPACC                   ;Fixed point. Load L with address of LSW of fixed nr
 1106  06C7  46                      MOV	B,M                      ;Fetch the LSW into CPU register B.
 1107  06C8  2E 0B                   MVI	L,OFS_EXP_COUNTER                   ;Set L to address of EXPONENT COUNTER
 1108  06CA  70                      MOV	M,B                      ;Place the fixed value in the EXP CNTR to indicate
 1109  06CB  2E 5C                   MVI	L,OFS_FPOP                   ;Number of multiplications needed (power). Now set L
 1110  06CD  1E 0C                   MVI	E,OFS_FP_TEMP                   ;To LSW of FPOP and E to address of FP TEMP (LSW)
 1111  06CF  26 01                   MVI	H,HIGH OLDPG1            ;** Set H to floating point working area page.
 1112  06D1  54                      MOV	D,H                      ;Set D to same page address.
 1113  06D2  06 04                   MVI	B,004H                   ;Set transfer (precision) counter. Call subroutine to move
 1114  06D4  CD 0B 11                CALL	MOVEIT                  ;Contents of FPOP into FP TEMP registers to save
 1115  06D7  CD A2 06                CALL	FPONE                   ;Original value of FPOP. Now set FPACC to +1.0.
 1116  06DA  2E 03                   MVI	L,OFS_EXP_TEMP                   ;Load L with pointer to original value of FPACC
 1117  06DC  7E                      MOV	A,M                      ;(Stored in FP TEMP) MSW and fetch contents to ACC.
 1118  06DD  A7                      ANA	A                        ;Test to see if raising to a negative power. If so, divide
 1119  06DE  FA F2 06                JM	DVLOOP                    ;Instead of multiply!
 1120  06E1  2E 0C        MULOOP:	MVI	L,OFS_FP_TEMP                      ;Load L with address of LSW of FP TEMP (original
 1121  06E3  CD BF 12                CALL	FACXOP                  ;Value in FPOP). Move FP TEMP into FPOP.
 1122  06E6  CD 26 11                CALL	FPMULT                  ;Multiply FPACC by FPOP. Result left in FPACC.
 1123  06E9  2E 0B                   MVI	L,OFS_EXP_COUNTER                   ;Load L with address of EXPONENT COUNTER.
 1124  06EB  46                      MOV	B,M                      ;Fetch the counter value
 1125  06EC  05                      DCR	B                        ;Decrement it
 1126  06ED  70                      MOV	M,B                      ;Restore it to memory
 1127  06EE  C2 E1 06                JNZ	MULOOP                   ;If counter not zero, continue exponentiation process
 1128  06F1  C9                      RET                          ;When have raised to proper power, return to caller.
 1129  06F2  2E 0C        DVLOOP:	MVI	L,OFS_FP_TEMP                      ;Load L with address of LSW of FP TEMP (original
 1130  06F4  CD BF 12                CALL	FACXOP                  ;Value in FPOP). Move FP TEMP into FPOP.
 1131  06F7  CD D2 11                CALL	FPDIV                   ;Divide FPACC by FPOP. Result left in FPACC.
 1132  06FA  2E 0B                   MVI	L,OFS_EXP_COUNTER                   ;Load L with address of EXPONENT COUNTER
 1133  06FC  46                      MOV	B,M                      ;Fetch the counter value
 1134  06FD  05                      DCR	B                        ;Decrement it
 1135  06FE  70                      MOV	M,B                      ;Restore to memory
 1136  06FF  C2 F2 06                JNZ	DVLOOP                   ;If counter not zero, continue exponentiation process
 1137  0702  C9                      RET                          ;When have raised to proper power, return to caller.
 1138                     
 1139                     ;;; The label PRIGHT: SHOULD BE UP TO 07 003
 1140  0703  2E 98        PRIGHT:	MVI	L,OFS_FA_STKPTR                      ;Load L with address of F/A STACK pointer
 1141  0705  26 16                   MVI	H,HIGH OLDPG26           ;** Load H with page of F/A STACK pointer
 1142  0707  7E                      MOV	A,M                      ;Fetch the pointer value into the ACC
 1143  0708  85                      ADD	L                        ;Form pointer to top of the F/A STACK
 1144  0709  6F                      MOV	L,A                      ;Set L to point to top of the F/A STACK
 1145  070A  7E                      MOV	A,M                      ;Fetch the contents of the top of the F/A STACK into
 1146  070B  36 00                   MVI	M,000H                   ;The ACC then clear the top of the F/A STACK
 1147  070D  2E 83                   MVI	L,OFS_TOKEN_STORE                   ;Load L with address of F /A STACK TEMP storage
 1148  070F  26 17                   MVI	H,HIGH OLDPG27           ;** Location. Set H to page of F/A STACK TEMP
 1149  0711  77                      MOV	M,A                      ;Store value from top of F/A STACK into temp loc.
 1150  0712  A7                      ANA	A                        ;Test to see if token value in top of stack was zero
 1151  0713  C8                      RZ                           ;If so, just had simple grouping parenthesis!
 1152  0714  FA 00 2D                JM	PRIGH1                    ;@@ If token value minus, indicates array subscript
 1153  0717  FE 01                   CPI	001H                     ;For positive token value, look for appropriate function
 1154  0719  CA A3 07                JZ	INTX                      ;If token value for INTeger function, go do it.
 1155  071C  FE 02                   CPI	002H                     ;Else, see if token value for SIGN function.
 1156  071E  CA F0 07                JZ	SGNX                      ;If so, go do it.
 1157  0721  FE 03                   CPI	003H                     ;Else, see if token value for ABSolute function
 1158  0723  CA E6 07                JZ	ABSX                      ;If so, go do it.
 1159  0726  FE 04                   CPI	004H                     ;If not, see if token value for SQuare Root function
 1160  0728  CA 00 1A                JZ	SQRX                      ;If so, go do it.
 1161  072B  FE 05                   CPI	005H                     ;If not, see if token value for TAB function
 1162  072D  CA 0F 08                JZ	TABX                      ;If so, go do it.
 1163  0730  FE 06                   CPI	006H                     ;If not, see if token value for RaNDom function
 1164  0732  CA A0 1A                JZ	RNDX                      ;If so, go find a random number.
 1165  0735  FE 07                   CPI	007H                     ;If not, see if token value for CHaRacter function
 1166  0737  CA FF 07                JZ	CHRX                      ;If so, go perform the function.
 1167  073A  FE 08                   CPI	008H                     ;Else, see if token for user defined machine language
 1168  073C  CA 0F 02                JZ	UDEFX                     ;# Function. If so, perform the User DEfined Function
 1169  073F  76                      HLT                          ;Safety halt. Program should not reach this location!
 1170                     
 1171                     ;;; The label FUNARR SHOULD BE AT 07 100
 1172  0740  2E 50        FUNARR:	MVI	L,OFS_SYMBOL_BUF                      ;Load L with starting address of SYMBOL BUFFER
 1173  0742  26 16                   MVI	H,HIGH OLDPG26           ;** Load H with page of SYMBOL BUFFER
 1174  0744  7E                      MOV	A,M                      ;Fetch the (cc) for contents of buffer to the ACC
 1175  0745  A7                      ANA	A                        ;See if (cc) is zero, if so buffer is empty, return to
 1176  0746  C8                      RZ                           ;Caller as have simple grouping parenthesis sign
 1177  0747  2E 82                   MVI	L,OFS_SCAN_PTR                   ;Else set L to TEMP COUNTER location
 1178  0749  26 17                   MVI	H,HIGH OLDPG27           ;** Set H to TEMP COUNTER page
 1179  074B  36 00                   MVI	M,000H                   ;Initialize TEMP COUNTER to zero
 1180  074D  2E 82        FUNAR1:	MVI	L,OFS_SCAN_PTR                      ;Load L with address of TEMP COUNTER
 1181  074F  26 17                   MVI	H,HIGH OLDPG27           ;** Load H with page of TEMP COUNTER
 1182  0751  46                      MOV	B,M                      ;Fetch the counter value to register B
 1183  0752  04                      INR	B                        ;Increment the counter
 1184  0753  70                      MOV	M,B                      ;Restore the updated value to memory
 1185  0754  0E 02                   MVI	C,002H                   ;Initialize C to a value of two for future ops
 1186  0756  2E BC                   MVI	L,OFS_FUNC_TBL_BASE                   ;Load L with starting address (less four) of FUNCTION
 1187  0758  26 16                   MVI	H,HIGH OLDPG26           ;** LOOK-UP TABLE. Set H to table page.
 1188  075A  CD 98 07                CALL	TABADR                  ;Find address of next entry in the table
 1189  075D  16 16                   MVI	D,HIGH OLDPG26           ;** Load D with page of SYMBOL BUFFER
 1190  075F  1E 50                   MVI	E,OFS_SYMBOL_BUF                   ;Load E with starting address of SYMBOL BUFFER
 1191  0761  CD DA 02                CALL	STRCP                   ;Compare entry in FUNCTION LOOK-UP TABLE with
 1192  0764  CA 87 07                JZ	FUNAR4                    ;Contents of SYMBOL BUFFER. If find match, go set
 1193  0767  2E 82                   MVI	L,OFS_SCAN_PTR                   ;Up the function token value. Else, set L to the TEMP
 1194  0769  26 17                   MVI	H,HIGH OLDPG27           ;** COUNTER and set H to the proper page. Fetch the
 1195  076B  7E                      MOV	A,M                      ;Current counter value and see if have tried all eight
 1196  076C  FE 08                   CPI	008H                     ;Possible functions in the table.
 1197  076E  C2 4D 07                JNZ	FUNAR1                   ;If not, go back and check the next entry.
 1198  0771  2E 82                   MVI	L,OFS_SCAN_PTR                   ;If have tried all of the entries in the table, set L
 1199  0773  26 17                   MVI	H,HIGH OLDPG27           ;** As well as H to the address of the TEMP COUI,.7ER
 1200  0775  36 00                   MVI	M,000H                   ;And reset it to zero. Now go see if have subscripted
 1201  0777  C3 2C 2D                JMP	FUNAR2                   ;@@ Array (unless array capability not in program).
 1202  077A  2E 98        FAERR:	MVI	L,OFS_FA_STKPTR                       ;Load L with address of F/A STACK pointer
 1203  077C  26 16                   MVI	H,HIGH OLDPG26           ;** Load H with page of F/A STACK pointer
 1204  077E  36 00                   MVI	M,000H                   ;Clear the F/A STACK pointer to reset on an error
 1205  0780  3E C6                   MVI	A,0C6H                   ;Load the ASCII code for letter F into the ACC
 1206  0782  0E C1                   MVI	C,0C1H                   ;Load the ASCII code for letter A into register C
 1207  0784  C3 96 02                JMP	ERROR                    ;Go display the FA error message
 1208  0787  2E 82        FUNAR4:	MVI	L,OFS_SCAN_PTR                      ;Load L with address of TEMP COUNTER
 1209  0789  26 17                   MVI	H,HIGH OLDPG27           ;** Set H to page of TEMP COUNTER
 1210  078B  46                      MOV	B,M                      ;Load value in counter to register B. This is FUNCTION
 1211  078C  2E 98                   MVI	L,OFS_FA_STKPTR                   ;TOKEN VALUE. Cbange- L to F/A STACK pointer.
 1212  078E  26 16                   MVI	H,HIGH OLDPG26           ;** Load H with page of F/A STACK pointer.
 1213  0790  4E                      MOV	C,M                      ;Fetch the F/A STACK pointer value into register C.
 1214  0791  CD 1E 13                CALL	INDEXC                  ;Form the address to the top of the F/A STACK.
 1215  0794  70                      MOV	M,B                      ;Store the FUNCTION TOKEN VALUE in the F/A
 1216  0795  C3 AD 02                JMP	CLESYM                   ;STACK. Then exit by clearing the SYMBOL BUFFER.
 1217  0798  78           TABADR:	MOV	A,B                         ;Move the TEMP COUNTER value from B to ACC
 1218  0799  07           TABAD1:	RLC                             ;Multiply by four using this loop to form value equal
 1219  079A  0D                      DCR	C                        ;To number of bytes per entry (4) times current entry
 1220  079B  C2 99 07                JNZ	TABAD1                   ;In the FUNCTION LOOK-UP TABLE.
 1221  079E  85                      ADD	L                        ;Add this value to the starting address of the table.
 1222  079F  6F                      MOV	L,A                      ;Form pointer to next entry in table
 1223  07A0  D0                      RNC                          ;If no carry return to caller
 1224  07A1  24                      INR	H                        ;Else, increment H before
 1225  07A2  C9                      RET                          ;Returning to caller
 1226                     
 1227                     ;;; The label INTX SHOULD BE AT 07 243
 1228  07A3  2E 56        INTX:	MVI	L,OFS_FPACC_MSW                        ;Load L with address of MSW of the FPACC
 1229  07A5  26 01                   MVI	H,HIGH OLDPG1            ;** Load H with the page of the PPACC
 1230  07A7  7E                      MOV	A,M                      ;Fetch the MSW of the FPACC into the accumulator
 1231  07A8  A7                      ANA	A                        ;Test the sign of the number in the FPACC. If
 1232  07A9  F2 D7 07                JP	INT1                      ;Positive jump ahead to integerize
 1233  07AC  2E 0C                   MVI	L,OFS_FP_TEMP                   ;If negative, load L with address of FP TEMP registers
 1234  07AE  CD AD 12                CALL	FSTORE                  ;Store the value in the FPACC in FP TEMP
 1235  07B1  CD 00 10                CALL	FPFIX                   ;Convert the value in FPACC from floating point to
 1236  07B4  2E 53                   MVI	L,OFS_SYMBOL_BUF+3                   ;Fixed point. Load L with address of FPACC
 1237  07B6  36 00                   MVI	M,000H                   ;Extension register and clear it.
 1238  07B8  CD 34 10                CALL	FPFLT                   ;Convert fixed binary back to FP to integerize
 1239  07BB  2E 0C                   MVI	L,OFS_FP_TEMP                   ;Load L with address of FP TEMP registers
 1240  07BD  CD B6 12                CALL	OPLOAD                  ;Load the value in FP TEMP into FPOP
 1241  07C0  CD 1A 11                CALL	FPSUB                   ;Subtract integerized value from original
 1242  07C3  2E 56                   MVI	L,OFS_FPACC_MSW                   ;Set L to address of MSW of FPACC
 1243  07C5  7E                      MOV	A,M                      ;Fetch the MSW of the FPACC into the accumulator
 1244  07C6  A7                      ANA	A                        ;See if original value and integerized value the same
 1245  07C7  CA E1 07                JZ	INT2                      ;If so, have integer value in FP TEMP
 1246  07CA  2E 0C                   MVI	L,OFS_FP_TEMP                   ;Else, load L with address of FP TEMP registers
 1247  07CC  CD A4 12                CALL	FLOAD                   ;Restore FPACC to original (non-integerized) value
 1248  07CF  2E 14                   MVI	L,OFS_FP_CONST_NEG1                   ;Set L to register containing small value
 1249  07D1  CD BF 12                CALL	FACXOP                  ;Set up to add small value to original value in FPACC
 1250  07D4  CD 89 10                CALL	FPADD                   ;Perform the addition
 1251  07D7  CD 00 10     INT1:	CALL	FPFIX                        ;Convert the number in FPACC from floating point
 1252  07DA  2E 53                   MVI	L,OFS_SYMBOL_BUF+3                   ;To fixed point. Load L with address of FPACC
 1253  07DC  36 00                   MVI	M,000H                   ;Extension register and clear it. Now convert the number
 1254  07DE  C3 34 10                JMP	FPFLT                    ;Back to floating point to integerize it and exit to caller
 1255  07E1  2E 0C        INT2:	MVI	L,OFS_FP_TEMP                        ;Load L with address of FP TEMP registers. Transfer
 1256  07E3  C3 A4 12                JMP	FLOAD                    ;Number from FP TEMP (orig) to FPACC and return.
 1257  07E6  2E 56        ABSX:	MVI	L,OFS_FPACC_MSW                        ;Load L with address of MSW of the FPACC
 1258  07E8  26 01                   MVI	H,HIGH OLDPG1            ;** Set H to page of the FPACC
 1259  07EA  7E                      MOV	A,M                      ;Fetch the MSW of the FPACC into the accumulator
 1260  07EB  A7                      ANA	A                        ;Test the sign of the number to see if it is positive.
 1261  07EC  FA 82 10                JM	FPCOMP                    ;If negative, complement the number before returning.
 1262  07EF  C9                      RET                          ;Else, just return with absolute value in the FPACC.
 1263  07F0  2E 56        SGNX:	MVI	L,OFS_FPACC_MSW                        ;Load L with address of MSW of the FPACC
 1264  07F2  26 01                   MVI	H,HIGH OLDPG1            ;** Load H with the page of the FPACC
 1265  07F4  7E                      MOV	A,M                      ;Fetch the MSW of the FPACC into the accumulator
 1266  07F5  A7                      ANA	A                        ;Test to see if the FPACC is zero
 1267  07F6  C8                      RZ                           ;Return to caller if FPACC is zero
 1268  07F7  F2 A2 06                JP	FPONE                     ;If FPACC is positive, load +1.0 into FPACC and exit
 1269  07FA  2E 14                   MVI	L,OFS_FP_CONST_NEG1                   ;If FPACC is negative, set up to load -1.0 into the
 1270  07FC  C3 A4 12                JMP	FLOAD                    ;FPACC and exit to caller
 1271  07FF  CD 00 10     CHRX:	CALL	FPFIX                        ;Convert contents of FPACC from floating point to
 1272  0802  2E 54                   MVI	L,OFS_FPACC                   ;Fixed point. Load L with address of LSW of fixed
 1273  0804  7E                      MOV	A,M                      ;Value. Fetch this byte into the accumulator.
 1274  0805  CD 82 03                CALL	ECHO                    ;Display the value.
 1275  0808  2E 7F                   MVI	L,OFS_TAB_FLAG                   ;Set L to address of the TAB FLAG
 1276  080A  26 16                   MVI	H,HIGH OLDPG26           ;** Set H to page of the TAB FLAG
 1277  080C  36 FF                   MVI	M,0FFH                   ;Set TAB FLAG (to inhibit display of FP value)
 1278  080E  C9                      RET                          ;Exit to caller.
 1279  080F  CD 00 10     TABX:	CALL	FPFIX                        ;Convert contents of FPACC from floating point to
 1280  0812  2E 54        TAB1:	MVI	L,OFS_FPACC                        ;Fixed point. Load L with address of 1,SW of fixed
 1281  0814  7E                      MOV	A,M                      ;Value. Fetch this byte into the accumulator.
 1282  0815  2E 23                   MVI	L,OFS_COL_COUNTER                   ;Load L with address of COLUMN COUNTER
 1283  0817  96                      SUB	M                        ;Subtract value in C-OLUMN COUNTER from desired
 1284  0818  2E 7F                   MVI	L,OFS_TAB_FLAG                   ;TAB position. Load L with address of the TAB FLAG.
 1285  081A  26 16                   MVI	H,HIGH OLDPG26           ;** Set H to page of the TAB FLAG.
 1286  081C  36 FF                   MVI	M,0FFH                   ;Set TAB FLAG (to inhibit display of FP value)
 1287  081E  FA 8F 19                JM	BACKSP                    ;If beyond TAB point desired, simulate back spacing
 1288  0821  C8                      RZ                           ;Return to caller if at desired TAB location
 1289  0822  4F           TABC:	MOV	C,A                           ;Else, put difference count in register C
 1290  0823  3E A0                   MVI	A,0A0H                   ;Place ASCII code for space in ACC
 1291  0825  CD 82 03     TABLOP:	CALL	ECHO                       ;Display space on output device
 1292  0828  0D                      DCR	C                        ;Decrement displacement counter
 1293  0829  C2 25 08                JNZ	TABLOP                   ;If have not reached TAB position, continue to space
 1294  082C  C9                      RET                          ;Else, return to calling routine.
 1295                     
 1296                     ;;; The label STOSYM should be AT 10 055
 1297  082D  2E 81        STOSYM:	MVI	L,OFS_SYNTAX_PTR                      ;Load L with address of ARRAY FLAG
 1298  082F  26 17                   MVI	H,HIGH OLDPG27           ;** Load H with page of ARRAY FLAG
 1299  0831  7E                      MOV	A,M                      ;Fetch the value of the ARRAY FLAG into the ACC
 1300  0832  A7                      ANA	A                        ;Check to see if the flag is set indicating processing an
 1301  0833  CA 40 08                JZ	STOSY1                    ;Array variable value. Jump ahead if flag not set.
 1302  0836  36 00                   MVI	M,000H                   ;If ARRAY FLAG was set, clear it for next time.
 1303  0838  2E 84                   MVI	L,OFS_TEMP_ARRAY                   ;Then load L with address of array address storage loc
 1304  083A  6E                      MOV	L,M                      ;Fetch the array storage address as new pointer
 1305  083B  26 2F                   MVI	H,HIGH OLDPG57           ;tt Set H to ARRAY VALUES page   ****************
 1306  083D  C3 AD 12                JMP	FSTORE                   ;Store the array variable value and exit to caller.
 1307  0840  2E F8        STOSY1:	MVI	L,OFS_LOOKUP_CNT                      ;Load L with address of TEMP CNTR
 1308  0842  26 16                   MVI	H,HIGH OLDPG26           ;** Load H with page of TEMP CNTR
 1309  0844  36 00                   MVI	M,000H                   ;Initialize the TEMP CNTR by clearing it
 1310  0846  2E 50                   MVI	L,OFS_SYMBOL_BUF                   ;Load L with starting address of SYMBOL BUFFER
 1311  0848  16 17                   MVI	D,HIGH OLDPG27           ;** Load D with page of VARIABLES LOOK-UP table
 1312  084A  1E 88                   MVI	E,OFS_VARIABLES_TBL                   ;Load E with starting addr of VARIABLES LOOK-UP
 1313  084C  7E                      MOV	A,M                      ;Table. Fetch the (cc) for the SYMBOL BUFFER into
 1314  084D  FE 01                   CPI	001H                     ;The ACC and see if length of variable name is just one
 1315  084F  C2 56 08                JNZ	STOSY2                   ;Character. If not, skip next couple of instructions.
 1316  0852  2E 52                   MVI	L,OFS_SYMBOL_CHAR2                   ;Else, set pointer to second character location in the
 1317  0854  36 00                   MVI	M,000H                   ;SYMBOL BUFFER and set it to zero
 1318  0856  2E 51        STOSY2:	MVI	L,OFS_SYMBOL_CHAR1                      ;load L with address of first character in the SYMBOL
 1319  0858  26 16                   MVI	H,HIGH OLDPG26           ;** BUFFER. Load H with page of the buffer.
 1320  085A  CD EE 12                CALL	SWITCH                  ;Exchange pointer to buffer for pointer to VARIABLES
 1321  085D  7E                      MOV	A,M                      ;LOOK-UP table. Fetch first char in a name from the
 1322  085E  2C                      INR	L                        ;Table. Advance the pointer to second char in a name.
 1323  085F  46                      MOV	B,M                      ;Fetch the second character into register B.
 1324  0860  2C                      INR	L                        ;Advance the pointer to first byte of a value in the table.
 1325  0861  CD EE 12                CALL	SWITCH                  ;Exchange table pointer for pointer to SYMBOL BUFF
 1326  0864  BE                      CMP	M                        ;Compare first character in buffer against first character
 1327  0865  C2 6E 08                JNZ	STOSY3                   ;In table entry. If no match, try next entry in the table.
 1328  0868  2C                      INR	L                        ;If match, advance pointer to second character in buffer.
 1329  0869  78                      MOV	A,B                      ;Move second character obtained from table into ACC.
 1330  086A  BE                      CMP	M                        ;Compare second characters in table and buffer.
 1331  086B  CA 97 08                JZ	STOSY5                    ;If same, have found the variable name in the table.
 1332  086E  CD AE 06     STOSY3:	CALL	AD4DE                      ;Add four to pointer in registers D&E to skip over value
 1333  0871  2E F8                   MVI	L,OFS_LOOKUP_CNT                   ;Portion of entry in table. Load L with address of TEMP
 1334  0873  26 16                   MVI	H,HIGH OLDPG26           ;** CNTR. Load H with page of TEMP CNTR.
 1335  0875  46                      MOV	B,M                      ;Fetch the counter
 1336  0876  04                      INR	B                        ;Increment the counter
 1337  0877  70                      MOV	M,B                      ;Restore it to storage
 1338  0878  2E 3F                   MVI	L,OFS_SYMVAR_CNT                   ;Set L to address of VARIABLES CNTR (indicates
 1339  087A  26 17                   MVI	H,HIGH OLDPG27           ;** Number of variables currently in table.) Set H too
 1340  087C  78                      MOV	A,B                      ;Move the TEMP CNTR value into the ACC. (Number of
 1341  087D  BE                      CMP	M                        ;Entries checked.) Compare with number of entries in
 1342  087E  C2 56 08                JNZ	STOSY2                   ;The table. If have not checked all entries, try next one.
 1343  0881  2E 3F                   MVI	L,OFS_SYMVAR_CNT                   ;If have checked all entries, load L with address of the
 1344  0883  26 17                   MVI	H,HIGH OLDPG27           ;** VARIABLES CNTR. Set H too. Fetch the counter
 1345  0885  46                      MOV	B,M                      ;Value and incrernent it to account for
 1346  0886  04                      INR	B                        ;New variable nwne that will now be
 1347  0887  70                      MOV	M,B                      ;Added to the table. Save the new value.
 1348  0888  78                      MOV	A,B                      ;Place the new counter value into the accumulator
 1349  0889  FE 15                   CPI	015H                     ;And check to see that adding new variable name to the
 1350  088B  F2 92 02                JP	BIGERR                    ;Table will not cause table overflow. Big Error if it does!
 1351  088E  2E 51                   MVI	L,OFS_SYMBOL_CHAR1                   ;If room available in table, set L to address of first
 1352  0890  26 16                   MVI	H,HIGH OLDPG26           ;** Caracter in the SYMBOL BUFFER. Set H too.
 1353  0892  06 02                   MVI	B,002H                   ;Set a counter for number of characters to transfer.
 1354  0894  CD 0B 11                CALL	MOVEIT                  ;Move the variable name from buffer to table.
 1355  0897  CD EE 12     STOSY5:	CALL	SWITCH                     ;Exchange buffer pointer for table pointer.
 1356  089A  CD AD 12                CALL	FSTORE                  ;Transfer new mathematical value into the table.
 1357  089D  C3 AD 02                JMP	CLESYM                   ;Clear the SYMBOL BUFFER and exit to calling routine.
 1358                     
 1359                                                       ;The subroutines below are used by some of the routines
 1360                                                       ;in this chapter as well as other parts of the program.
 1361                     
 1362  08A0  2E 50        SAVESY:	MVI	L,OFS_SYMBOL_BUF                      ;Load L with the address of the start of the SYMBOL
 1363  08A2  26 16                   MVI	H,HIGH OLDPG26           ;** BUFFER. Load H with the page of the buffer.
 1364  08A4  54                      MOV	D,H                      ;Load register D with the page of the AUX SYMBOL
 1365  08A5  1E 64                   MVI	E,OFS_SYMBOL_BUF_64                   ;BUFFER and set register E to start of that buffer.
 1366  08A7  C3 B1 08                JMP	MOVECP                   ;Transfer SYMBOL BF contents to AUX SYMBOL BF
 1367                     
 1368  08AA  2E 64        RESTSY:	MVI	L,OFS_FP_WORK+4                      ;Load L with address of start of AUX SYMBOL BUFF
 1369  08AC  26 16                   MVI	H,HIGH OLDPG26           ;** Load H with page of AUX SYMBOL BUFFER
 1370  08AE  54                      MOV	D,H                      ;Set D to page of SYMBOL BUFFER (same as H)
 1371  08AF  1E 50                   MVI	E,OFS_SYMBOL_BUF                   ;Load E with start of SYMBOL BUFFER
 1372  08B1  46           MOVECP:	MOV	B,M                         ;Load (cc) for source string (first byte in source buffer)
 1373  08B2  04                      INR	B                        ;Add one to (cc) to include (cc) byte itself
 1374  08B3  C3 0B 11                JMP	MOVEIT                   ;Move the source string to destination buffer
 1375                     
 1376                     ;;; The label Exec SHOULD BE AT 10 266 (This is the start of the code)
 1377  08B6  2E EA        EXEC:	MVI	L,OFS_MSG_READY                        ;Load L with address of READY message
 1378  08B8  26 01                   MVI	H,HIGH OLDPG1            ;** Load H with page of READY message
 1379  08BA  CD 51 03                CALL	TEXTC                   ;Call subroutine to display the READY message
 1380                     
 1381  08BD  2E 00        EXEC1:	MVI	L,OFS_LINE_INP_BUF           ;Load L with starting address of INPUT LINE BUFFER
 1382  08BF  26 16                   MVI	H,HIGH OLDPG26           ;** Load H with page of INPUT LINE BUFFER
 1383  08C1  CD 0C 03                CALL	STRIN                   ;Call subroutine to input a line into the buffer
 1384  08C4  7E                      MOV	A,M                      ;The STRIN subroutine will exit with pointer set to the
 1385  08C5  A7                      ANA	A                        ;CHARACTER COUNT for the line inputted. Fetch the
 1386  08C6  CA BD 08                JZ	EXEC1                     ;Value of the counter, if it is zero then line was blank.
 1387  08C9  2E DD                   MVI	L,OFS_KW_LIST                   ;Load L with address of LIST in look up table
 1388  08CB  26 01                   MVI	H,HIGH OLDPG1            ;Load H with address of LIST in look up table
 1389  08CD  16 16                   MVI	D,HIGH OLDPG26           ;Load D with page of line input buffer
 1390  08CF  1E 00                   MVI	E,OFS_LINE_INP_BUF                   ;Load E with start of line input buffer
 1391  08D1  CD DA 02                CALL	STRCP                   ;Call string compare subroutine to see if first word in
 1392  08D4  C2 EC 08                JNZ	NOLIST                   ;Input buffer is LIST. Jump 3 ahead if not LIST.
 1393  08D7  2E 00                   MVI	L,OFS_USER_PROG          ;If LIST, set up pointers to start of USER PROGRAM
 1394  08D9  26 1B                   MVI	H,BGNPGRAM               ;BUFFER. (Note user could alter this starting addr)   *****
 1395                     
 1396                                                       ;Next portion of program will LIST the contents of the
 1397                                                       ;USER PROGRAM BUFFER until an end of buffer
 1398                                                       ;(zero byte) indicator is detected.
 1399                     
 1400  08DB  7E           LIST:	MOV	A,M                           ;Fetch the first byte of a line in the USER PROGRAM
 1401  08DC  A7                      ANA	A                        ;BUFFER and see if it is zero. If so, have finished LIST
 1402  08DD  CA B6 08                JZ	EXEC                      ;So go back to start of Executive and display READY.
 1403  08E0  CD 51 03                CALL	TEXTC                   ;Else call subroutine to display a line of information
 1404  08E3  CD FF 02                CALL	ADV                     ;Now call subroutine to advance buffer pointer to
 1405  08E6  CD 61 03                CALL	CRLF                    ;Character count in next line. Also display a CR & LF.
 1406  08E9  C3 DB 08                JMP	LIST                     ;Continue LISTing process
 1407                     
 1408                                                       ;If line inputted by operator did not contain a LIST comman
 1409                                                       ;continue program to see if RUN or SCRatch command.
 1410                     
 1411  08EC  2E E2        NOLIST:	MVI	L,OFS_KW_RUN                      ;Load L with address of RUN in look up table
 1412  08EE  26 01                   MVI	H,HIGH OLDPG1            ;** Load H with address of RUN in look up table
 1413  08F0  1E 00                   MVI	E,OFS_LINE_INP_BUF                   ;Load E with start of line input buffer
 1414  08F2  16 16                   MVI	D,HIGH OLDPG26           ;** Load D with page of line input buffer
 1415  08F4  1E 00                   MVI	E,OFS_LINE_INP_BUF                   ;(Reserve 2 locs in case of patching by duplicating above)
 1416  08F6  CD DA 02                CALL	STRCP                   ;Call string compare subroutine to see if first word in
 1417  08F9  CA 38 0B                JZ	RUN                       ;Input buffer is RUN. Go to RUN routine if match.
 1418  08FC  16 16                   MVI	D,HIGH OLDPG26           ;** If not RUN command, reset address pointers back
 1419  08FE  1E 00                   MVI	E,OFS_LINE_INP_BUF                   ;To the start of the line input buffer
 1420  0900  2E E6                   MVI	L,OFS_KW_SCR                   ;Load L with address of SCR in look up table
 1421  0902  26 01                   MVI	H,HIGH OLDPG1            ;** Load H with page of SCR in look up table
 1422  0904  CD DA 02                CALL	STRCP                   ;Call string compare subroutine to see if first word in
 1423  0907  C2 39 09                JNZ	NOSCR                    ;Input buffer is SCR. If not then jump ahead.
 1424  090A  26 16                   MVI	H,HIGH OLDPG26           ;** If found SCR command then load memory pointer
 1425  090C  2E F4                   MVI	L,OFS_TEMP_F4                   ;With address of a pointer storage location. Set that
 1426  090E  36 1B                   MVI	M,BGNPGRAM               ;tt Storage location to page of start of USER PRO-  *******
 1427  0910  2C                      INR	L                        ;GRAM BUFFER. (Buffer start loc may be altered).
 1428  0911  36 00                   MVI	M,000H                   ;Then adv pntr and do same for low addr portion of pntr
 1429  0913  2E 3F                   MVI	L,OFS_SYMVAR_CNT                   ;Now set pointer to address of VARIABLES counter
 1430  0915  26 17                   MVI	H,HIGH OLDPG27           ;** Storage location. Initialize this counter by placing
 1431  0917  36 01                   MVI	M,001H                   ;The count of one into it. Now change the memory pntr
 1432                     ;MGA 3/31/12 put it back to 001; solves nested FOR/NEXT, but limits vars to 19
 1433                     ;   as the letter from James Tucker (1/77) mentioned
 1434                     ;   apparently, James didn't test FOR/NEXT; original Loboyko didn't have this
 1435                     ;;;           LMI 001                ;The count of one into it. Now change the memory pntr
 1436                     ;;; Apparently, in Page 3 of Issue 4 of Scelbal update (1/77) they say the above should change.
 1437                     ;;; This makes the SCR command clear the whole variable space, otherwise one space is lost.  
 1438  0919  2E 3D                   MVI	L,OFS_SYMVAR_CNT-2                   ;To storage location for number of dimensioned arrays
 1439  091B  36 00                   MVI	M,000H                   ;@@ And initialize to zero. (@@ = Substitute NOPs if
 1440  091D  2E 50                   MVI	L,OFS_SYMBOL_BUF                   ;@@ DIMension capability not used in package.) Also
 1441  091F  36 00                   MVI	M,000H                   ;@@ Initialize l'st byte of array name table to zero.
 1442  0921  2E 88                   MVI	L,OFS_OP_STKPTR                   ;Set pointer to storage location for the first byte of the
 1443  0923  36 00                   MVI	M,000H                   ;VARIABLES symbol table. Initialize it to zero too.
 1444  0925  2C                      INR	L                        ;Advance the pointer and zero the second location
 1445  0926  36 00                   MVI	M,000H                   ;In the Variables table also.
 1446  0928  26 1B                   MVI	H,BGNPGRAM               ;tt Load H with page of start of USER PROGRAM    **********
 1447  092A  2E 00                   MVI	L,OFS_USER_PROG          ;BUFFER. (Buffer start location could be altered.)
 1448  092C  36 00                   MVI	M,000H                   ;Clear first location to indicate end of user program.
 1449  092E  26 2F                   MVI	H,HIGH OLDPG57           ;@@ Load H with page of ARRAYS storage
 1450  0930  36 00        SCRLOP:	MVI	M,000H                      ;@@ And form a loop to clear out all the locations
 1451  0932  2C                      INR	L                        ;@@ On the ARRAYS storage page. (@@ These become
 1452  0933  C2 30 09                JNZ	SCRLOP                   ;@@ NOPs if DIMension capability deleted fm package.)
 1453  0936  C3 B6 08                JMP	EXEC                     ;SCRatch operations completed, go back to EXEC.
 1454                     
 1455                                                       ;If line inputted did not contain RUN or SCRatch com-
 1456                                                       ;mand, program continues by testing for SAVE or LOAD
 1457                                                       ;commands. If it does not find either of these com-
 1458                                                       ;mands, then operator did not input an executive com-
 1459                                                       ;mand. Program then sets up to see if the first entry in
 1460                                                       ;the line inputted is a LINE NUMBER.
 1461                     
 1462  0939  1E BA        NOSCR:	MVI	E,LOW KW_SAVE                       ;Load E with address of SAVE in look up table
 1463  093B  16 01                   MVI	D,HIGH OLDPG1            ;Load D with page of look up table
 1464  093D  26 16                   MVI	H,HIGH OLDPG26           ;Load H with page of input line buffer
 1465  093F  2E 00                   MVI	L,OFS_LINE_INP_BUF       ;Set L to start of input line buffer
 1466  0941  CD DA 02                CALL	STRCP                   ;Call string compare subroutine to see if first word in
 1467  0944  CA 00 02                JZ	SAVE                      ;tt Input buffer is SAVE. If so, go to user's SAVE rtn
 1468  0947  2E BF                   MVI	L,OFS_EVAL_FINISH                   ;If not SAVE then load L with address of LOAD in look
 1469  0949  26 01                   MVI	H,HIGH OLDPG1            ;Up table and load H with page of look up table
 1470  094B  16 16                   MVI	D,HIGH OLDPG26           ;Load D with page of input line buffer
 1471  094D  1E 00                   MVI	E,OFS_LINE_INP_BUF                   ;And L to start of input line buffer
 1472  094F  CD DA 02                CALL	STRCP                   ;Call string compare subroutine to see if first word in
 1473  0952  CA 00 02                JZ	LOAD                      ;tt Input buffer is LOAD. If so, go to user's LOAD rtn
 1474  0955  2E F0                   MVI	L,OFS_TEMP_F0                   ;If not LOAD then set pointer to address of storage loc
 1475  0957  26 16                   MVI	H,HIGH OLDPG26           ;** For USER PROGRAM BUFFER pointer. Initialize this
 1476  0959  36 1B                   MVI	M,BGNPGRAM               ;tt Pointer to the starting address of the program buffer.
 1477  095B  2C                      INR	L                        ;Advance memory pntr. Since pointer storage requires
 1478  095C  36 00                   MVI	M,000H                   ;Two locations, initialize the low addr portion also.
 1479  095E  CD 00 02                CALL	SYNTAX                  ;Call the SYNTAX subroutine to obtain a TOKEN indi-
 1480  0961  2E 83                   MVI	L,OFS_TOKEN_STORE                   ;Cator which will be stored in this location. Upon return
 1481  0963  26 16                   MVI	H,HIGH OLDPG26           ;** From SYNTAX subroutine set memory pointer to
 1482  0965  7E                      MOV	A,M                      ;The TOKEN indicator storage location and fetch the
 1483  0966  A7                      ANA	A                        ;Value of the TOKEN. If the value of the syntax TOKEN
 1484  0967  F2 71 09                JP	SYNTOK                    ;Is positive then have a valid entry.
 1485  096A  3E D3        SYNERR:	MVI	A,0D3H                      ;However, if SYNTAX returns a negative value TOKEN
 1486  096C  0E D9                   MVI	C,0D9H                   ;Then have an error condition. Set up the letters SY in
 1487  096E  C3 96 02                JMP	ERROR                    ;ASCII code and go to display error message to operator.
 1488  0971  2E E0        SYNTOK:	MVI	L,OFS_LINENUM_BUF                      ;Set pointer to start of LINE NUMBER storage area
 1489  0973  7E                      MOV	A,M                      ;First byte there will contain the length of the line
 1490  0974  A7                      ANA	A                        ;Number character string. Fetch that value (cc).
 1491  0975  CA 89 0B                JZ	DIRECT                    ;DIRECT If line number blank, have a DIRECT statement!
 1492  0978  2E F0                   MVI	L,OFS_TEMP_F0                   ;If have a line number must get line in input buffer into
 1493  097A  36 1B                   MVI	M,BGNPGRAM               ;tt User program buffer. Initialize pointer to user buffer.
 1494  097C  2C                      INR	L                        ;This is a two byte pointer so after initializing page addr
 1495  097D  36 00                   MVI	M,000H                   ;Advance pointer and initialize location on page address
 1496                     
 1497                                                       ;If the line in the LINE INPUT BUFFER has a line num-
 1498                                                       ;ber then the line is to be placed in the USER PRO-
 1499                                                       ;GRAM BUFFER. It is now necessary to determine
 1500                                                       ;where the new line is to be placed in the USER PRO-
 1501                                                       ;GRAM BUFFER. This is dictated by the value of the
 1502                                                       ;new line number in relation to the line numbers cur-
 1503                                                       ;rently in the program buffer. The next portion of the
 1504                                                       ;program goes through the contents of the USER PRO-
 1505                                                       ;GRAM BUFFER comparing the values of the line num-
 1506                                                       ;bers already stored against the value of the line number
 1507                                                       ;currently being held in the LINE INPUT BUFFER.
 1508                                                       ;Appropriate action is then taken to Insert or Append,
 1509                                                       ;Change, or Delete a line in the program buffer.
 1510                     
 1511  097F  2E 81        GETAUX:	MVI	L,OFS_SYNTAX_PTR                      ;Set memory pointer to line character pointer storage
 1512  0981  26 16                   MVI	H,HIGH OLDPG26           ;** Location and then initialize that storage location
 1513  0983  36 01                   MVI	M,001H                   ;To point to the 1'st character in a line
 1514  0985  2E E8                   MVI	L,OFS_AUX_LINENUM                   ;Set memory pointer to addr of start of auxiliary line
 1515  0987  36 00                   MVI	M,000H                   ;Number storage area and initialize first byte to zero
 1516  0989  2E 81        GETAU0:	MVI	L,OFS_SYNTAX_PTR                      ;Set memory pointer to line character pointer storage loc
 1517  098B  CD 53 0A                CALL	GETCHP                  ;Fetch a char in line pointed to by line pointer
 1518  098E  CA A2 09                JZ	GETAU1                    ;If character is a space, skip it by going to advance pntrs
 1519  0991  FE B0                   CPI	0B0H                     ;If not a space check to see if character represents a
 1520  0993  FA B7 09                JM	GETAU2                    ;Valid decimal digit in the range 0 to 9 by testing the
 1521  0996  FE BA                   CPI	0BAH                     ;ASCII code value obtained. If not a deciznal digit then
 1522  0998  F2 B7 09                JP	GETAU2                    ;Assume have obtained the line number. Go process.
 1523  099B  2E E8                   MVI	L,OFS_AUX_LINENUM                   ;If valid decimal digit want to append the digit to the
 1524  099D  26 16                   MVI	H,HIGH OLDPG26           ;** Current string being built up in the auxiliary line
 1525  099F  CD CC 02                CALL	CONCT1                  ;Number storage area so call sub to concat a character.
 1526  09A2  2E 81        GETAU1:	MVI	L,OFS_SYNTAX_PTR                      ;Reset memory pointer to line character pntr storage loc
 1527  09A4  26 16                   MVI	H,HIGH OLDPG26           ;On the appropriate page.
 1528  09A6  46                      MOV	B,M
 1529  09A7  04                      INR	B                        ;Fetch the pointer, increment it, and restore new value
 1530  09A8  70                      MOV	M,B
 1531  09A9  2E F0                   MVI	L,OFS_TEMP_F0                   ;Set memory pointer to pgm buff line pntr storage loc
 1532  09AB  26 16                   MVI	H,HIGH OLDPG26
 1533  09AD  4E                      MOV	C,M                      ;Bring the high order byte of this double byte pointer
 1534  09AE  2C                      INR	L                        ;Into CPU register C. Then advance the memory pntr
 1535  09AF  6E                      MOV	L,M                      ;And bring the low order byte into register L. Now trans-
 1536  09B0  61                      MOV	H,C                      ;Fer the higher order portion into memory pointer H.
 1537  09B1  7E                      MOV	A,M                      ;Obtain the char cntr (cc) which indicates the length of
 1538  09B2  05                      DCR	B                        ;The line being pointed to by the user program line pntr
 1539  09B3  B8                      CMP	B                        ;Compare this with the value of the chars processed so
 1540  09B4  C2 89 09                JNZ	GETAU0                   ;Far in current line. If not equal, continue getting line n
 1541  09B7  2E F0        GETAU2:	MVI	L,OFS_TEMP_F0                      ;Reset mem pntr to pgm buffer line pntr storage
 1542  09B9  26 16                   MVI	H,HIGH OLDPG26           ;** On this page and place the high order byte
 1543  09BB  56                      MOV	D,M                      ;Of this pointer into CPU register D
 1544  09BC  2C                      INR	L                        ;Advance the memory pointer, fetch the second
 1545  09BD  6E                      MOV	L,M                      ;Byte of the pgm buffer line pointer into register L
 1546  09BE  62                      MOV	H,D                      ;Now make the memory pointer equal to this value
 1547  09BF  7E                      MOV	A,M                      ;Fetch the first byte of a line in the program buffer
 1548  09C0  A7                      ANA	A                        ;Test to see if end of contents of pgm buff (zero byte)
 1549  09C1  C2 DE 09                JNZ	NOTEND                   ;If not zero continue processing. If zero have reached
 1550  09C4  C3 05 0A                JMP	NOSAME                   ;End of buffer contents so go APPEND line to buffer.
 1551                     ;;; there are some open addresses here.  Above JUMP starts at 11-304;
 1552                     ;;; The below label patch3 should start at 11 307
 1553  09C7  2E 81        PATCH3:	MVI	L,OFS_SYNTAX_PTR                      ; ptr to A/V storage
 1554  09C9  26 17        	   MVI	H,HIGH OLDPG27                  ; MGA 3/31/12 make relocatable; prev: LHI 027
 1555  09CB  36 00        	   MVI	M,000H                          ; clear A/V flag
 1556  09CD  C3 B6 08     	   JMP	EXEC
 1557                     
 1558                     	ORG	009DEH
 1559  09DE  2E E8        NOTEND:	MVI	L,OFS_AUX_LINENUM                      ;Load L with addr of auxiliary line number storage loc
 1560  09E0  26 16                   MVI	H,HIGH OLDPG26           ;Load H with addr of aux line number storage loc
 1561  09E2  16 16                   MVI	D,HIGH OLDPG26           ;Load D with addr of line number buffer location
 1562  09E4  1E E0                   MVI	E,OFS_LINENUM_BUF                   ;Load E with address of line number buffer location
 1563  09E6  CD DA 02                CALL	STRCP                   ;Compare line nr in input buffer with line number in
 1564  09E9  FA 3B 0A                JM	CONTIN                    ;User program buffer. If lesser in value keep looking.
 1565  09EC  C2 05 0A                JNZ	NOSAME                   ;If greater in value then go to Insert line in pgm buffer
 1566  09EF  2E F0                   MVI	L,OFS_TEMP_F0                   ;If same values then must remove the line with the same
 1567  09F1  26 16                   MVI	H,HIGH OLDPG26           ;** Line number from the user program buffer. Set up
 1568  09F3  4E                      MOV	C,M                      ;The CPU memory pointer to point to the current
 1569  09F4  2C                      INR	L                        ;Position in the user program buffer by retrieving that
 1570  09F5  6E                      MOV	L,M                      ;Pointer from its storage location. Then obtain the first
 1571  09F6  61                      MOV	H,C                      ;Byte of data pointed to which will be the character
 1572  09F7  46                      MOV	B,M                      ;Count for that line (cc). Add one to the cc value to take
 1573  09F8  04                      INR	B                        ;Account of the (cc) byte itself and then remove that
 1574  09F9  CD 64 0A                CALL	REMOVE                  ;Many bytes to effectively delete the line fm the user
 1575  09FC  2E 83                   MVI	L,OFS_TOKEN_STORE                   ;Program buffer. Now see if line in input buffer consists
 1576  09FE  26 16                   MVI	H,HIGH OLDPG26           ;** Only of a line number by checking SYNTAX
 1577  0A00  7E                      MOV	A,M                      ;TOKEN value. Fetch the TOKEN value from its
 1578  0A01  A7                      ANA	A                        ;Storage location. If it is zero then input buffer only
 1579  0A02  CA B6 08                JZ	EXEC                      ;Contains a line number. Action is a pure Delete.
 1580  0A05  2E F0        NOSAME:	MVI	L,OFS_TEMP_F0                      ;Reset memory pointer to program buffer
 1581  0A07  26 16                   MVI	H,HIGH OLDPG26           ;Line pointer storage location
 1582  0A09  56                      MOV	D,M                      ;Load high order byte into CPU register D
 1583  0A0A  2C                      INR	L                        ;Advance memory pointer
 1584  0A0B  5E                      MOV	E,M                      ;Load low order byte into CPU register E
 1585  0A0C  2E 00                   MVI	L,OFS_LINE_INP_BUF       ;Load L with address of start of line input buffer
 1586  0A0E  26 16                   MVI	H,HIGH OLDPG26           ;** Do same for CPU register H
 1587  0A10  46                      MOV	B,M                      ;Get length of line input buffer
 1588  0A11  04                      INR	B                        ;Advance length by one to include (cc) byte
 1589  0A12  CD 85 0A                CALL	INSERT                  ;Go make room to insert line into user program buffer
 1590  0A15  2E F0                   MVI	L,OFS_TEMP_F0            ;Reset memory pointer to program buffer
 1591  0A17  26 16                   MVI	H,HIGH OLDPG26           ;** Line pointer storage location
 1592  0A19  56                      MOV	D,M                      ;Load higher byte into CPU register D
 1593  0A1A  2C                      INR	L                        ;Advance memory pointer
 1594  0A1B  5E                      MOV	E,M                      ;Load low order byte into CPU register E
 1595  0A1C  2E 00                   MVI	L,OFS_LINE_INP_BUF       ;Load L with address of start of line input buffer
 1596  0A1E  26 16                   MVI	H,HIGH OLDPG26           ;** Do same for CPU register H
 1597  0A20  CD 26 0A                CALL	MOVEC                   ;Call subroutine to Insert line in input buffer into the
 1598  0A23  C3 BD 08                JMP	EXEC1                    ;User program buffer then go back to start of EXEC.
 1599  0A26  46           MOVEC:	MOV	B,M                          ;Fetch length of string in line input buffer
 1600  0A27  04                      INR	B                        ;Increment that value to provide for (cc)
 1601  0A28  7E           MOVEPG:	MOV	A,M                         ;Fetch character from line input buffer
 1602  0A29  CD FF 02                CALL	ADV                     ;Advance pointer for line input buffer
 1603  0A2C  CD EE 12                CALL	SWITCH                  ;Switch memory pointer to point to user pgm buffer
 1604  0A2F  77                      MOV	M,A                      ;Deposit character fm input buff into user pgm buff
 1605  0A30  CD FF 02                CALL	ADV                     ;Advance pointer for user program buffer
 1606  0A33  CD EE 12                CALL	SWITCH                  ;Switch memory pntr back to point to input buffer
 1607  0A36  05                      DCR	B                        ;Decrement character counter stored in CPU register B
 1608  0A37  C2 28 0A                JNZ	MOVEPG                   ;If counter does not go to zero continue transfer ops
 1609  0A3A  C9                      RET                          ;When counter equals zero return to calling routine
 1610  0A3B  2E F0        CONTIN:	MVI	L,OFS_TEMP_F0                      ;Reset memory pointer to program buffer
 1611  0A3D  26 16                   MVI	H,HIGH OLDPG26           ;** Line pointer storage location
 1612  0A3F  56                      MOV	D,M                      ;Load high order byte into CPU register D
 1613  0A40  2C                      INR	L                        ;Advance memory pointer
 1614  0A41  5E                      MOV	E,M                      ;Load low order byte into CPU register E
 1615  0A42  62                      MOV	H,D                      ;Now set CPU register H to high part of address
 1616  0A43  6B                      MOV	L,E                      ;And set CPU register L to low part of address
 1617  0A44  46                      MOV	B,M                      ;Fetch the character counter (cc) byte fm line in
 1618  0A45  04                      INR	B                        ;Program buffer and add one to compensate for (cc)
 1619  0A46  CD C5 0A                CALL	ADBDE                   ;Add length of line value to old value to get new pointer
 1620  0A49  2E F0                   MVI	L,OFS_TEMP_F0                   ;Reset memory pointer to program buffer
 1621  0A4B  26 16                   MVI	H,HIGH OLDPG26           ;** Line pointer storage location
 1622  0A4D  72                      MOV	M,D                      ;Restore new high portion
 1623  0A4E  2C                      INR	L                        ;Advance memory pointer
 1624  0A4F  73                      MOV	M,E                      ;And restore new low portion
 1625  0A50  C3 7F 09                JMP	GETAUX                   ;Continue til find point at which to enter new line
 1626  0A53  26 16        GETCHP:	MVI	H,HIGH OLDPG26              ;** Load H with pointer page (low portion set upon
 1627  0A55  46                      MOV	B,M                      ;Entry). Now fetch pointer into CPU register B.
 1628  0A56  2E F0                   MVI	L,OFS_TEMP_F0                   ;Reset pntr to pgm buffer line pointer storage location
 1629  0A58  56                      MOV	D,M                      ;Load high order byte into CPU register D
 1630  0A59  2C                      INR	L                        ;Advance memory pointer
 1631  0A5A  5E                      MOV	E,M                      ;Load low order byte into CPU register E
 1632  0A5B  CD C5 0A                CALL	ADBDE                   ;Add pointer to pgm buffer pointer to obtain address of
 1633  0A5E  62                      MOV	H,D                      ;Desired character. Place high part of new addr in H.
 1634  0A5F  6B                      MOV	L,E                      ;And low part of new address in E.
 1635  0A60  7E                      MOV	A,M                      ;Fetch character from position in line in user pgm buffer
 1636  0A61  FE A0                   CPI	0A0H                     ;See if it is the ASCII code for space
 1637  0A63  C9                      RET                          ;Return to caller with flags set to indicate result
 1638  0A64  CD 7C 03     REMOVE:	CALL	INDEXB                     ;Add (cc) plus one to addr of start of line
 1639  0A67  4E                      MOV	C,M                      ;Obtain byte from indexed location and
 1640  0A68  CD 4B 03                CALL	SUBHL                   ;Subtract character count to obtain old location
 1641  0A6B  71                      MOV	M,C                      ;Put new byte in old location
 1642  0A6C  79                      MOV	A,C                      ;As well as in the Accumulator
 1643  0A6D  A7                      ANA	A                        ;Test to see if zero byte to indicate end of user pgm buff
 1644  0A6E  CA 77 0A                JZ	REMOV1                    ;If it is end of user pgm buffer, go complete process
 1645  0A71  CD FF 02                CALL	ADV                     ;Otherwise add one to the present pointer value
 1646  0A74  C3 64 0A                JMP	REMOVE                   ;And continue removing chamcters from the user pgm bf
 1647  0A77  2E F4        REMOV1:	MVI	L,OFS_TEMP_F4                      ;Load L with end of user pgm buffer pointer storage loc
 1648  0A79  26 16                   MVI	H,HIGH OLDPG26           ;** Load H with page of that pointer storage location
 1649  0A7B  56                      MOV	D,M                      ;Get page portion of end of pgm buffer address
 1650  0A7C  2C                      INR	L                        ;Advance memory pointer
 1651  0A7D  7E                      MOV	A,M                      ;And get low portion of end of pgm buffer address into
 1652  0A7E  90                      SUB	B                        ;Accumulator then subtract displacement value in B
 1653  0A7F  77                      MOV	M,A                      ;Restore new low portion of end of pgm buffer address
 1654  0A80  D0                      RNC                          ;If subtract did not cause carry can return now
 1655  0A81  2D                      DCR	L                        ;Otherwise decrement memory pointer back to page
 1656  0A82  15                      DCR	D                        ;Storage location, decrement page value to give new page
 1657  0A83  72                      MOV	M,D                      ;And store new page value back in buffer pntr storage loc
 1658  0A84  C9                      RET                          ;Then return to calling routine
 1659  0A85  2E F4        INSERT:	MVI	L,OFS_TEMP_F4                      ;Load L with end of user pgm buffer pointer storage loc
 1660  0A87  26 16                   MVI	H,HIGH OLDPG26           ;** Load H with page of that pointer storage location
 1661  0A89  7E                      MOV	A,M                      ; Get page portion of end of program buffer address
 1662  0A8A  2C                      INR	L                        ;Advance memory pointer
 1663  0A8B  6E                      MOV	L,M                      ;Load low portion of end of program buffer address
 1664  0A8C  67                      MOV	H,A                      ;Into L and finish setting up memory pointer
 1665  0A8D  CD 7C 03                CALL	INDEXB                  ;Add (cc) of line in input buffer to form new end of
 1666  0A90  7C                      MOV	A,H                      ;Program buffer address. Fetch new end of buffer page
 1667  0A91  FE 2D                   CPI	ENDPGRAM                 ;tt Address and see if this value would exceed user's
 1668  0A93  F2 92 02                JP	BIGERR                    ;System capabilit'y. Go display error message if so!
 1669  0A96  CD 4B 03                CALL	SUBHL                   ;Else restore original value of end of buffer address
 1670  0A99  4E           INSER1:	MOV	C,M                         ;Bring byte pointed to by H & L into CPU register C
 1671  0A9A  CD 7C 03                CALL	INDEXB                  ;Add displacement value to current memory pointer
 1672  0A9D  71                      MOV	M,C                      ;Store the byte in the new location
 1673  0A9E  CD 4B 03                CALL	SUBHL                   ;Now subtract displacement value from H & L
 1674  0AA1  CD BF 0A                CALL	CPHLDE                  ;Compare this with the address stored in D & E
 1675  0AA4  CA AD 0A                JZ	INSER3                    ;If same then go finish up Insert operation
 1676  0AA7  CD 74 03                CALL	DEC                     ;Else set pointer to the byte before the byte just
 1677  0AAA  C3 99 0A                JMP	INSER1                   ;Processed and continue the Insert operation
 1678                     INSER3:
 1679  0AAD  2E 00        INCLIN:	MVI	L,OFS_LINE_INP_BUF          ;Load L with start of line input buffer
 1680  0AAF  26 16                   MVI	H,HIGH OLDPG26           ;** Load H with page of start of line input buffer
 1681  0AB1  46                      MOV	B,M                      ;Fetch length of the line in line input buffer
 1682  0AB2  04                      INR	B                        ;Increment value by one to include (cc) byte
 1683  0AB3  2E F4                   MVI	L,OFS_TEMP_F4                   ;Set memory pointer to end of user pgrn buffer pointer
 1684  0AB5  56                      MOV	D,M                      ;Storage location on same page and fetch page address
 1685  0AB6  2C                      INR	L                        ;Of this pointer into D. Then advance memory pointer
 1686  0AB7  5E                      MOV	E,M                      ;And get low part of this pointer into CPU register E.
 1687  0AB8  CD C5 0A                CALL	ADBDE                   ;Now add displacement (cc) of line in input buffer to
 1688  0ABB  73                      MOV	M,E                      ;The end of program buffer pointer. Replace the updated
 1689  0ABC  2D                      DCR	L                        ;Low portion of the new pointer value back in stomge
 1690  0ABD  72                      MOV	M,D                      ;And restore the new page value back into storage
 1691  0ABE  C9                      RET                          ;Then return to calling routine
 1692  0ABF  7C           CPHLDE:	MOV	A,H                         ;Subroutine to compare if the contents of CPU registers
 1693  0AC0  BA                      CMP	D                        ;H & L are equal to registers D & E. First compare
 1694  0AC1  C0                      RNZ                          ;Register H to D. Return with flags set if not equal. If
 1695  0AC2  7D                      MOV	A,L                      ;Equal continue by comparing register L to E.
 1696  0AC3  BB                      CMP	E                        ;IF L equals E then H & L equal to D & E so return to
 1697  0AC4  C9                      RET                          ;Calling routines with flags set to equality status
 1698  0AC5  7B           ADBDE:	MOV	A,E                          ;Subroutine to add the contents of CPU register B (single
 1699  0AC6  80                      ADD	B                        ;Byte value) to the double byte value in registers D & E.
 1700  0AC7  5F                      MOV	E,A                      ;First add B to E to form new least significant byte
 1701  0AC8  D0                      RNC                          ;Restore new value to E and exit if no carry resulted
 1702  0AC9  14                      INR	D                        ;If had a carry then must increment most significant byte
 1703  0ACA  C9                      RET                          ;In register D before returning to calling routine
 1704  0ACB  3E DE        CTRLC:	MVI	A,0DEH                       ;Set up ASCII code for t (up arrow) in Accumulator.
 1705  0ACD  0E C3                   MVI	C,0C3H                   ;Set up ASCII code for letter 'C' in CPU register C.
 1706  0ACF  C3 96 02                JMP	ERROR                    ;Go display the 'Control C' condition message.
 1707  0AD2  2E E0        FINERR:	MVI	L,OFS_LINENUM_BUF                      ;Load L with starting address of line number storage area
 1708  0AD4  26 16                   MVI	H,HIGH OLDPG26           ;** Load H with page of line number storage area
 1709  0AD6  7E                      MOV	A,M                      ;Get (cc) for line number string. If length is zero meaning
 1710  0AD7  A7                      ANA	A                        ;There is no line number stored in the buffer then jump
 1711  0AD8  CA E9 0A                JZ	FINER1                    ;Ahead to avoid displaying "AT LINE" message
 1712  0ADB  2E F6                   MVI	L,OFS_TEMP_F6                   ;Else load L with address of start of "AT LINE" message
 1713  0ADD  26 01                   MVI	H,HIGH OLDPG1            ;** Stored on this page
 1714  0ADF  CD 51 03                CALL	TEXTC                   ;Call subroutine to display the "AT LINE" message
 1715  0AE2  2E E0                   MVI	L,OFS_LINENUM_BUF                   ;Now reset L to starting address of line number storage
 1716  0AE4  26 16                   MVI	H,HIGH OLDPG26           ;** Area and do same for CPU register H
 1717  0AE6  CD 51 03                CALL	TEXTC                   ;Call subroutine to display the line number
 1718  0AE9  CD 61 03     FINER1:	CALL	CRLF                       ;Call subroutine to provide a carriage-return and line-feed
 1719  0AEC  C3 C7 09     	   JMP	PATCH3
 1720                     ;;; The following is the old code, before patch 3
 1721                     ;;;           JMP EXEC               ;To the display device then return to EXECUTIVE.
 1722  0AEF  3E C4        DVERR:	MVI	A,0C4H                       ;Set up ASCII code for letter 'D' in Accumulator
 1723  0AF1  0E DA                   MVI	C,0DAH                   ;Set up ASCII code for letter 'Z' in CPU register C
 1724  0AF3  C3 96 02                JMP	ERROR                    ;Go display the 'DZ' (divide by zero) error message
 1725  0AF6  3E C6        FIXERR:	MVI	A,0C6H                      ;Set up ASCII code for letter 'F' in Accumulator
 1726  0AF8  0E D8                   MVI	C,0D8H                   ;Set up ASCII code for letter 'X' in CPU register C
 1727  0AFA  C3 96 02                JMP	ERROR                    ;Go display the 'FX' (FiX) error message
 1728  0AFD  3E C9        NUMERR:	MVI	A,0C9H                      ;Set up ASCII code for letter 'I' in Accumulator
 1729  0AFF  0E CE                   MVI	C,0CEH                   ;Set up ASCII code for letter 'N' in CPU register C
 1730  0B01  2E 90                   MVI	L,OFS_GETINP_CNT                   ;Load L with address of pointer used by DINPUT
 1731  0B03  26 01                   MVI	H,HIGH OLDPG1            ;** Routine. Do same for register H.
 1732  0B05  36 00                   MVI	M,000H                   ;Clear the location
 1733  0B07  C3 96 02                JMP	ERROR                    ;Go display the'IN'(Illegal Number) error message
 1734                     
 1735                                                       ;The following subroutine, used by various sections of
 1736                                                       ;SCELBAL, will search the LINE INPUT BUGGER for
 1737                                                       ;a character string which is contained in a buffer starting
 1738                                                       ;at the address pointed to by CPU registers H & L when
 1739                                                       ;the subroutine is entered.
 1740                     
 1741  0B0A  16 16        INSTR:	MVI	D,HIGH OLDPG26               ;**Set D to starting page of LINE INPUT BUFFER
 1742  0B0C  1E 00                   MVI	E,OFS_LINE_INP_BUF                   ;Load E with starting location of LINE INPUT BUFFER
 1743  0B0E  CD 34 0B     INSTR1:	CALL	ADVDE                      ;Advancer D & E pointer to the next location (input
 1744  0B11  CD CF 12                CALL	SAVEHL                  ;Buffer). Now save contents of d, E, H & L vefore the
 1745  0B14  46                      MOV	B,M                      ;Compare operations. Get length of TEST buffer in B.
 1746  0B15  CD FF 02                CALL	ADV                     ;Advance H & L buffer to first char in TEST buffer.
 1747  0B18  CD F8 02                CALL	STRCPC                  ;Compare contents of TEST buffer against input buffer
 1748  0B1B  CA DF 12                JZ	RESTHL                    ;For length B. If match, restore pntrs and exit to caller.
 1749  0B1E  CD DF 12                CALL	RESTHL                  ;If no match, restore pointers for loop test.
 1750  0B21  2E 00                   MVI	L,OFS_LINE_INP_BUF                   ;Load L with start of input buffer (to get the char cntr).
 1751  0B23  26 16                   MVI	H,HIGH OLDPG26           ;**Load H with page of input buffer.
 1752  0B25  7E                      MOV	A,M                      ;Get length of buffer (cc) into the accumulator.
 1753  0B26  BB                      CMP	E                        ;Compare with current input buffer pointer value.
 1754  0B27  CA 31 0B                JZ	INSTR2                    ;If at end of buffer, jump ahead.
 1755  0B2A  CD DF 12                CALL	RESTHL                  ;Else restore test string address (H&L) and input buffer
 1756  0B2D  C3 0E 0B                JMP	INSTR1                   ;Address (D&E). Look gor occurrence of test string in ln.
 1757  0B30  76                      HLT                          ;Safety halt. If program reaches here have system failure.
 1758  0B31  1E 00        INSTR2:	MVI	E,OFS_LINE_INP_BUF                      ;If reach end of input buffer without finding a match
 1759  0B33  C9                      RET                          ;Load E with 000 as an indicator and return to caller.
 1760  0B34  1C           ADVDE:	INR	E                            ;Subroutine to advance the pointer in the register
 1761  0B35  C0                      RNZ                          ;Pair D & E. Advance contents of E. Return if not zero.
 1762  0B36  14                      INR	D                        ;If register E goes to 0 when advanced, then advance
 1763  0B37  C9                      RET                          ;Register D too. Exit to calling routine.
 1764                     
 1765                     ;;; The label RUN should start at 13-170
 1766  0B38  2E 3B        RUN:	MVI	L,OFS_GOSUB_STK_BASE                         ;Load L with addr of GOSUB/RETURN stack pointer
 1767  0B3A  26 17                   MVI	H,HIGH OLDPG27           ;** Load H with page of same pointer
 1768  0B3C  36 00                   MVI	M,000H                   ;Initialize the GOSUB/RETURN stack pointer to zero
 1769  0B3E  2E 85                   MVI	L,OFS_TEMP_085                   ;Load L with addr of FOR/NEXT stack pointer
 1770  0B40  36 00                   MVI	M,000H                   ;Initialize the FOR/NEXT stack pointer to zero
 1771  0B42  2E F0                   MVI	L,OFS_TEMP_F0                   ;Load L with addr of user pgm buffer line pointer
 1772  0B44  26 16                   MVI	H,HIGH OLDPG26           ;** Load H with page of user pgm buffer line pointer
 1773  0B46  36 1B                   MVI	M,BGNPGRAM               ;tt Initialize pointer (may be altered by user)   *******
 1774  0B48  2C                      INR	L                        ;Advance memory pointer to low portion of user pgm
 1775  0B49  36 00                   MVI	M,000H                   ;Buffer pointer and initialize to start of buffer
 1776  0B4B  C3 6E 0B                JMP	SAMLIN                   ;Start executing user program with first line in buffer
 1777  0B4E  2E F0        NXTLIN:	MVI	L,OFS_TEMP_F0                      ;Load L with addr of user program buffer line pointer
 1778  0B50  26 16                   MVI	H,HIGH OLDPG26           ;** Load H with page of user pgm buffer line pointer
 1779  0B52  56                      MOV	D,M                      ;Place page addr of pgm buffer line pointer in D
 1780  0B53  2C                      INR	L                        ;Advance the memory pointer
 1781  0B54  5E                      MOV	E,M                      ;Place low addr of pgm buffer line pointer in E
 1782  0B55  62                      MOV	H,D                      ;Also put page addr of pgm buffer line pointer in H
 1783  0B56  6B                      MOV	L,E                      ;And low addr of pgm buffer line pointer in L
 1784  0B57  46                      MOV	B,M                      ;Now fetch the (cc) of current line into register B
 1785  0B58  04                      INR	B                        ;Add one to account for (cc) byte itself
 1786  0B59  CD C5 0A                CALL	ADBDE                   ;Add value in B to D&E to point to next line in
 1787  0B5C  2E F0                   MVI	L,OFS_TEMP_F0                   ;User program buffer. Reset L to addr of user logrn
 1788  0B5E  26 16                   MVI	H,HIGH OLDPG26           ;** Buffer pointer storage location. Store the new
 1789  0B60  72                      MOV	M,D                      ;Updated user pgm line pointer in pointer storage
 1790  0B61  2C                      INR	L                        ;Location. Store both the high portion
 1791  0B62  73                      MOV	M,E                      ;And low portion. (Now points to next line to be
 1792  0B63  2E E0                   MVI	L,OFS_LINENUM_BUF                   ;Processed from user program buffer.) Change pointer
 1793  0B65  26 16                   MVI	H,HIGH OLDPG26           ;** To address of line number buffer. Fetch the last
 1794  0B67  7E                      MOV	A,M                      ;Line number (length) processed. Test to see if it was
 1795  0B68  A7                      ANA	A                        ;Blank. If it was blank
 1796  0B69  CA B6 08                JZ	EXEC                      ;Then stop processing and return to the Executive
 1797  0B6C  7F                      MOV	A,A                      ;Insert two effective NOPs here
 1798  0B6D  7F                      MOV	A,A                      ;In case of patching
 1799  0B6E  2E F0        SAMLIN:	MVI	L,OFS_TEMP_F0                      ;Load L with addr of user program buffer line pointer
 1800  0B70  26 16                   MVI	H,HIGH OLDPG26           ;** Load H with page of same pointer
 1801  0B72  4E                      MOV	C,M                      ;Fetch the high portion of the pointer into register C
 1802  0B73  2C                      INR	L                        ;Advance the memory pointer
 1803  0B74  6E                      MOV	L,M                      ;Fetch the low portion of the pointer into register L
 1804  0B75  61                      MOV	H,C                      ;Now move the high portion into register H
 1805  0B76  16 16                   MVI	D,HIGH OLDPG26           ;** Set D to page of line input buffer
 1806  0B78  1E 00                   MVI	E,OFS_LINE_INP_BUF                   ;Set E to address of start of line input buffer
 1807  0B7A  CD 26 0A                CALL	MOVEC                   ;Move the line ftom the user program buffer into the
 1808  0B7D  2E 00                   MVI	L,OFS_LINE_INP_BUF                   ;Line input buffer. Now reset the pointer to the start
 1809  0B7F  26 16                   MVI	H,HIGH OLDPG26           ;** Of the line input buffer.
 1810  0B81  7E                      MOV	A,M                      ;Fetch the first byte of the line input buffer (cc)
 1811  0B82  A7                      ANA	A                        ;Test (cc) value to see if fetched a blank line
 1812  0B83  CA B6 08                JZ	EXEC                      ;If fetched a blank line, return to the Executive
 1813  0B86  CD 00 02                CALL	SYNTAX                  ;Else call subrtn to strip off line nr & set statement toke
 1814                     
 1815  0B89  2E 83        DIRECT:	MVI	L,OFS_TOKEN_STORE                      ;Load L with address of syntax TOKEN storage location
 1816  0B8B  26 16                   MVI	H,HIGH OLDPG26           ;** Load H with page of syntax TOKEN location
 1817  0B8D  7E                      MOV	A,M                      ;Fetch the TOKEN value into the accumulator
 1818  0B8E  FE 01                   CPI	001H                     ;Is it token value for REM statement? If so, ignore the
 1819  0B90  CA 4E 0B                JZ	NXTLIN                    ;Current line and go on to the next line in pgm buffer.
 1820  0B93  FE 02                   CPI	002H                     ;Is it token value for IF statement?
 1821  0B95  CA 17 0E                JZ	IF                        ;If yes, then go to the IF statement routine.
 1822  0B98  FE 03                   CPI	003H                     ;Is it token value for LET statement? (Using keyword)
 1823  0B9A  CA 19 0D                JZ	LET                       ;If yes, then go to the LET statement routine.
 1824  0B9D  FE 04                   CPI	004H                     ;Is it token value for GOTO statement?
 1825  0B9F  CA 7C 0D                JZ	GOTO                      ;If yes, then go to the GOTO statement routine.
 1826  0BA2  FE 05                   CPI	005H                     ;Is it token value for PRINT statement?
 1827  0BA4  CA E5 0B                JZ	PRINT                     ;If yes, then go to the PRINT statement routine.
 1828  0BA7  FE 06                   CPI	006H                     ;Is it token value for INPUT statement?
 1829  0BA9  CA F5 0E                JZ	INPUT                     ;If yes, then go to the INPUT statement routine.
 1830  0BAC  FE 07                   CPI	007H                     ;Is it token value for FOR statement?
 1831  0BAE  CA 74 0F                JZ	FOR                       ;If yes, then go to the FOR statement routine.
 1832  0BB1  FE 08                   CPI	008H                     ;Is it token value for NEXT statement?
 1833  0BB3  CA 0B 18                JZ	NEXT                      ;If yes, then go to the NEXT statement routine.
 1834  0BB6  FE 09                   CPI	009H                     ;Is it token value for GOSUB statement?
 1835  0BB8  CA 9E 0E                JZ	GOSUB                     ;If yes, then go to the GOSUB statement routine.
 1836  0BBB  FE 0A                   CPI	00AH                     ;Is it token value for RETURN statement?
 1837  0BBD  CA C4 0E                JZ	RETURN                    ;If yes, then go to the RETURN statement routine.
 1838  0BC0  FE 0B                   CPI	00BH                     ;Is it token value for DIM statement?
 1839  0BC2  CA F5 2D                JZ	DIM                       ;If yes, then go to the DIM statement routine.
 1840  0BC5  FE 0C                   CPI	00CH                     ;Is it token value for END statement?
 1841  0BC7  CA B6 08                JZ	EXEC                      ;If yes, then go back to the Executive, user pgm finished!
 1842  0BCA  FE 0D                   CPI	00DH                     ;Is it token value for IMPLIED LET statement?
 1843  0BCC  CA 0B 0D                JZ	LET0                      ;If yes, then go to special LET entry point.
 1844  0BCF  FE 0E                   CPI	00EH                     ;@@ Is it token value for ARRAY IMPLIED LET?
 1845  0BD1  C2 6A 09                JNZ	SYNERR                   ;If not, then assume a syntax error condition.
 1846  0BD4  CD 6B 2D                CALL	ARRAY1                  ;@@ Else, perform array storage set up subroutine.
 1847  0BD7  2E 86                   MVI	L,OFS_ARRAY_SETUP                   ;@@ Set L to array pointer storage location.
 1848  0BD9  26 16                   MVI	H,HIGH OLDPG26           ;@@ * * Set H to array pointer storage location.
 1849  0BDB  46                      MOV	B,M                      ;@@ Fetch array pointer to register B.
 1850  0BDC  2E 82                   MVI	L,OFS_SCAN_PTR                   ;@@ Change memory pointer to syntax pntr storage loc.
 1851  0BDE  70                      MOV	M,B                      ;@@ Save array pointer value there.
 1852  0BDF  CD A0 08                CALL	SAVESY                  ;@@ Save array name in auxiliary symbol buffer
 1853  0BE2  C3 22 0D                JMP	LET1
 1854  0BE5  2E 82        PRINT:	MVI	L,OFS_SCAN_PTR                       ;Load L with address of SCAN pointer storage location
 1855  0BE7  26 16                   MVI	H,HIGH OLDPG26           ;** Load H with page of SCAN pointer
 1856  0BE9  7E                      MOV	A,M                      ;Fetch the pointer value (last character scanned by the
 1857  0BEA  2E 00                   MVI	L,OFS_LINE_INP_BUF                   ;SYNTAX routine). Change pointer to line buffer (cc).
 1858  0BEC  BE                      CMP	M                        ;Compare pointer value to buffer length. If not equal
 1859  0BED  FA F6 0B                JM	PRINT1                    ;Then line contains more than stand alone PRINT state-
 1860  0BF0  CD 61 03                CALL	CRLF                    ;Ment. However, if just have PRINT statement then issue
 1861  0BF3  C3 4E 0B                JMP	NXTLIN                   ;A carriage-return & line-feed combination, then exit.
 1862  0BF6  CD AD 02     PRINT1:	CALL	CLESYM                     ;Initialize the SYMBOL buffer for new entry.
 1863  0BF9  2E 82                   MVI	L,OFS_SCAN_PTR                   ;Load L with address of SCAN buffer pointer
 1864  0BFB  26 16                   MVI	H,HIGH OLDPG26           ;** Load H with page of SCAN pointer
 1865  0BFD  46                      MOV	B,M                      ;Pointer points to last char scanned by SYNTAX. Need
 1866  0BFE  04                      INR	B                        ;To increment it to point to next char in statement line.
 1867  0BFF  2E 83                   MVI	L,OFS_TOKEN_STORE                   ;Load L with address of former TOKEN value. Use it as
 1868  0C01  70                      MOV	M,B                      ;Storage location for a PRINT statement pointer.
 1869  0C02  2E 83        PRINT2:	MVI	L,OFS_TOKEN_STORE                      ;Set memory pointer to PRINT pointer storage location
 1870  0C04  CD A0 02                CALL	GETCHR                  ;Fetch character in input buffer pointed to by PRINT
 1871  0C07  FE A7                   CPI	0A7H                     ;Pointer. See if it is ASCII code for single quote mark.
 1872  0C09  CA 83 0C                JZ	QUOTE                     ;If so, go to QUOTE section to process text string.
 1873  0C0C  FE A2                   CPI	0A2H                     ;If not, see if it is ASCII code for double quote mark.
 1874  0C0E  CA 83 0C                JZ	QUOTE                     ;If so, go to QUOTE section to process text string.
 1875  0C11  FE AC                   CPI	0ACH                     ;If not, see if it is ASCII code for comma sign.
 1876  0C13  CA 23 0C                JZ	PRINT3                    ;If so, go evaluate expression.
 1877  0C16  FE BB                   CPI	0BBH                     ;If not, see if it is ASCII code for semi-colon sign.
 1878  0C18  CA 23 0C                JZ	PRINT3                    ;If so, go evaluate expression.
 1879  0C1B  2E 83                   MVI	L,OFS_TOKEN_STORE                   ;Load L with address of PRINT pointer storage location.
 1880  0C1D  CD 03 03                CALL	LOOP                    ;Increment pointer and test for end of line.
 1881  0C20  C2 02 0C                JNZ	PRINT2                   ;If not end of line, fetch the next character.
 1882  0C23  2E 82        PRINT3:	MVI	L,OFS_SCAN_PTR                      ;Load L with address of SCAN pointer storage location
 1883  0C25  46                      MOV	B,M                      ;Fetch value of the pointer (last letter of KEYWORD)
 1884  0C26  04                      INR	B                        ;Add one to point to first character of expression
 1885  0C27  2E BE                   MVI	L,OFS_EVAL_PTR                   ;Load L with addr of EVAL pointer storage location
 1886  0C29  70                      MOV	M,B                      ;Store addr at which EVAL should start scanning
 1887  0C2A  2E 83                   MVI	L,OFS_TOKEN_STORE                   ;Load L with address of PRINT pointer
 1888  0C2C  46                      MOV	B,M                      ;Which points to field terminator
 1889  0C2D  05                      DCR	B                        ;Decrement pointer value to last character of expression
 1890  0C2E  2E BF                   MVI	L,OFS_EVAL_FINISH                   ;Load L with address of EVAL FINISH pntr storage loc.
 1891  0C30  70                      MOV	M,B                      ;Place address value of last char in PRINT field there
 1892  0C31  2E F7                   MVI	L,OFS_TEMP_F7                   ;Load L with address of QUOTE flag
 1893  0C33  7E                      MOV	A,M                      ;Fetch the value of the QUOTE flag into the ACC
 1894  0C34  A7                      ANA	A                        ;Test the QUOTE flag status
 1895  0C35  CA 3D 0C                JZ	PRINT4                    ;If field not quoted, proceed to evaluate expression
 1896  0C38  36 00                   MVI	M,000H                   ;If field quoted, then clear the QUOTE flag for next field
 1897  0C3A  C3 55 0C                JMP	PRINT6                   ;And skip the evaluation procedure
 1898  0C3D  CD 94 03     PRINT4:	CALL	EVAL                       ;Evaluate the current PRINT field
 1899  0C40  2E 7F                   MVI	L,OFS_TAB_FLAG                   ;Then load L,with address of the TAB flag
 1900  0C42  26 16                   MVI	H,HIGH OLDPG26           ;** Load H with the page of the TAB flag
 1901  0C44  7E                      MOV	A,M                      ;Fetch the value of the TAB flag into the accumulator
 1902  0C45  A7                      ANA	A                        ;Test the TAB flag
 1903  0C46  2E 48                   MVI	L,OFS_FP_MODE_IND                   ;Change L to the FIXED/FLOAT flag location
 1904  0C48  26 01                   MVI	H,HIGH OLDPG1            ;** Change H to the FIXED/FLOAT flag page
 1905  0C4A  36 FF                   MVI	M,0FFH                   ;Set FIXED/FLOAT flag to fixed point
 1906  0C4C  CC CC 0C     PRINT5:	CZ	PFPOUT                       ;If TAB flag not set, display value of expression
 1907  0C4F  2E 7F                   MVI	L,OFS_TAB_FLAG                   ;Load L with address of TAB flag
 1908  0C51  26 16                   MVI	H,HIGH OLDPG26           ;** Load H with page of TAB flag
 1909  0C53  36 00                   MVI	M,000H                   ;Reset TAB flag for next PRINT field
 1910  0C55  2E 83        PRINT6:	MVI	L,OFS_TOKEN_STORE                      ;Load L with address of PRINT pointer stomge location
 1911  0C57  CD A0 02                CALL	GETCHR                  ;Fetch the character pointed to by the PRINT pointer
 1912  0C5A  FE AC                   CPI	0ACH                     ;See if the last character scanned was a comma sign
 1913  0C5C  CC EF 0C                CZ	PCOMMA                    ;If so, then display spaces to next TA.B location
 1914  0C5F  2E 83                   MVI	L,OFS_TOKEN_STORE                   ;Reset L to address of PRINT pointer storage location
 1915  0C61  26 16                   MVI	H,HIGH OLDPG26           ;** Reset H to page of PRINT pointer stomge location
 1916  0C63  46                      MOV	B,M                      ;Fetch the value of the pointer into register B
 1917  0C64  2E 82                   MVI	L,OFS_SCAN_PTR                   ;Change L to SCAN pointer storage location
 1918  0C66  70                      MOV	M,B                      ;Place end of last field processed into SCAN pointer
 1919  0C67  2E 00                   MVI	L,OFS_LINE_INP_BUF                   ;Change pointer to start of line input buffer
 1920  0C69  78                      MOV	A,B                      ;Place pntr to last char scanned into the accumulator
 1921  0C6A  BE                      CMP	M                        ;Compare this value to the (cc) for the line buffer
 1922  0C6B  FA F6 0B                JM	PRINT1                    ;If not end of line, continue to process next field
 1923  0C6E  2E 00                   MVI	L,OFS_LINE_INP_BUF                   ;If end of line, fetch the last character in the line
 1924  0C70  CD A0 02                CALL	GETCHR                  ;And check to see if it
 1925  0C73  FE AC                   CPI	0ACH                     ;Was a comma. If it was, go on to the next line in the
 1926  0C75  CA 4E 0B                JZ	NXTLIN                    ;User program buffer without displaying a CR & LF.
 1927  0C78  FE BB                   CPI	0BBH                     ;If not a comma, check to see if it was a semi-colon.
 1928  0C7A  CA 4E 0B                JZ	NXTLIN                    ;If so, do not provide a CR & LF combination.
 1929  0C7D  CD 61 03                CALL	CRLF                    ;If not comma or semi-colon, provide CR & LF at end
 1930  0C80  C3 4E 0B                JMP	NXTLIN                   ;Of a PRINT statement. Go process next line of pgrm.
 1931  0C83  2E F7        QUOTE:	MVI	L,OFS_TEMP_F7                       ;Load L with address of QUOTE flag
 1932  0C85  77                      MOV	M,A                      ;Store type of quote in flag storage location
 1933  0C86  CD AD 02                CALL	CLESYM                  ;Initialize the SYMBOL buffer for new entry
 1934  0C89  2E 83                   MVI	L,OFS_TOKEN_STORE                   ;Load L with address of PRINT pointer
 1935  0C8B  46                      MOV	B,M                      ;Fetch the PRINT pointer into register B
 1936  0C8C  04                      INR	B                        ;Add one to advance over quote character
 1937  0C8D  2E 84                   MVI	L,OFS_TEMP_ARRAY                   ;Load L with address of QUOTE pointer
 1938  0C8F  70                      MOV	M,B                      ;Store the beginning of the QUOTE field pointer
 1939  0C90  2E 84        QUOTE1:	MVI	L,OFS_TEMP_ARRAY                      ;Load L with address of QUOTE pointer
 1940  0C92  CD A0 02                CALL	GETCHR                  ;Fetch the next character in the TEXT field
 1941  0C95  2E F7                   MVI	L,OFS_TEMP_F7                   ;Load L with the QUOTE flag (type of quote)
 1942  0C97  BE                      CMP	M                        ;Compare to see if latest character this quote mark
 1943  0C98  CA B3 0C                JZ	QUOTE2                    ;If so, finish up this quote field
 1944  0C9B  CD 82 03                CALL	ECHO                    ;If not, display the character as part of TEXT
 1945  0C9E  2E 84                   MVI	L,OFS_TEMP_ARRAY                   ;Reset L to QUOTE pointer storage location
 1946  0CA0  CD 03 03                CALL	LOOP                    ;Increment QUOTE pointer and test for end of line
 1947  0CA3  C2 90 0C                JNZ	QUOTE1                   ;If not end of line, continue processing TEXT field
 1948  0CA6  3E C9        QUOTER:	MVI	A,0C9H                      ;If end of line before closing quote mark have an error
 1949  0CA8  0E D1                   MVI	C,0D1H                   ;So load ACC with I and register C with Q
 1950  0CAA  2E F7                   MVI	L,OFS_TEMP_F7                   ;Load L with the address of the QUOTE flag
 1951  0CAC  26 16                   MVI	H,HIGH OLDPG26           ;** Load H with the page of the QUOTE flag
 1952  0CAE  36 00                   MVI	M,000H                   ;Clear the QUOTE flag for future use
 1953  0CB0  C3 96 02                JMP	ERROR                    ;Go display the IQ (Illegal Quote) error message
 1954  0CB3  2E 84        QUOTE2:	MVI	L,OFS_TEMP_ARRAY                      ;Load L with address of QUOTE pointer
 1955  0CB5  46                      MOV	B,M                      ;Fetch the QUOTE pointer into register B
 1956  0CB6  2E 82                   MVI	L,OFS_SCAN_PTR                   ;Load L with address of SCAN pointer storage location
 1957  0CB8  70                      MOV	M,B                      ;Store former QUOTE vointer as start of next field
 1958  0CB9  78                      MOV	A,B                      ;Place QUOTE pointer into the accumulator
 1959  0CBA  2E 00                   MVI	L,OFS_LINE_INP_BUF                   ;Change L to point to start of the input line buffer
 1960  0CBC  BE                      CMP	M                        ;Compare QUOTE pointer value with (cc) value
 1961  0CBD  C2 F6 0B                JNZ	PRINT1                   ;If not end of line, process next PRINT field
 1962  0CC0  CD 61 03                CALL	CRLF                    ;Else display a CR & LF combination at the end of line
 1963  0CC3  2E F7                   MVI	L,OFS_TEMP_F7                   ;Load L with the address of the TAB flag
 1964  0CC5  26 16                   MVI	H,HIGH OLDPG26           ;** Load H with the page of the TAB flag
 1965  0CC7  36 00                   MVI	M,000H                   ;Clear the TAB flag for future use
 1966  0CC9  C3 4E 0B                JMP	NXTLIN                   ;Go process next line of the program.
 1967                     
 1968                                                       ;The following subroutines are utilized by the PRINT
 1969                                                       ;routine.
 1970                     ;;; The label PFPOUT SHOULD BE AT 14 314
 1971  0CCC  2E 56        PFPOUT:	MVI	L,OFS_FPACC_MSW                      ;Load L with the address of the FPACC MSW (Floating
 1972  0CCE  26 01                   MVI	H,HIGH OLDPG1            ;** Point ACC). Load H with page of the FPACC MSW.
 1973  0CD0  7E                      MOV	A,M                      ;Fetch the FPACC MSW into the accumulator. Test to
 1974  0CD1  A7                      ANA	A                        ;See if the FPACC MSW is zero. If so, then simply go and
 1975  0CD2  CA DE 0C                JZ	ZERO                      ;Display the value "0"
 1976  0CD5  2C                      INR	L                        ;Else advance the pointer to the FPACC Exponent
 1977  0CD6  7E                      MOV	A,M                      ;Fetch the FPACC Exponent into the accumulator
 1978  0CD7  A7                      ANA	A                        ;See if any exponent value. If not, mantissa is in range
 1979  0CD8  CA E8 0C                JZ	FRAC                      ;0.5 to 1.0. Treat number as a fraction.
 1980  0CDB  C3 75 14                JMP	FPOUT                    ;Else perform regular numerical output routine.
 1981  0CDE  3E A0        ZERO:	MVI	A,0A0H                        ;Load ASCII code for space into the ACC
 1982  0CE0  CD 82 03                CALL	ECHO                    ;Display the space
 1983  0CE3  3E B0                   MVI	A,0B0H                   ;Load ASCII code for 0 into the ACC
 1984  0CE5  C3 82 03                JMP	ECHO                     ;Display 0 and exit to calling routine
 1985  0CE8  2E 48        FRAC:	MVI	L,OFS_FP_MODE_IND                        ;Load L with address of FIXED/FLOAT flag
 1986  0CEA  36 00                   MVI	M,000H                   ;Reset it to indicate floating point mode
 1987  0CEC  C3 75 14                JMP	FPOUT                    ;Display floating point number and return to caller
 1988  0CEF  2E 00        PCOMMA:	MVI	L,OFS_LINE_INP_BUF                      ;Load L with address of (cc) in line input buffer
 1989  0CF1  7E                      MOV	A,M                      ;Fetch the (cc) for the line into the ACC
 1990  0CF2  2E 83                   MVI	L,OFS_TOKEN_STORE                   ;Change pointer to PRINT pointer storage location
 1991  0CF4  96                      SUB	M                        ;Subtract value of PRINT pointer from line (cc)
 1992  0CF5  F8                      RM                           ;If at end of buffer, do not TAB
 1993  0CF6  2E 23                   MVI	L,OFS_COL_COUNTER                   ;If not end, load L with address of COLUMN COUNTER
 1994  0CF8  26 01                   MVI	H,HIGH OLDPG1            ;** Set H to page of COLUMN COUNTER
 1995  0CFA  7E                      MOV	A,M                      ;Fetch COLUMN COUNTER into the accumulator
 1996  0CFB  E6 F0                   ANI	0F0H                     ;Find the last TAB position (multiple of 16 decimal)
 1997  0CFD  C6 10                   ADI	010H                     ;Add 16 (decimal) to get new TAB position
 1998  0CFF  96                      SUB	M                        ;Subtract current position from next TAB position
 1999  0D00  4F                      MOV	C,A                      ;Store this value in register C as a counter
 2000  0D01  3E A0                   MVI	A,0A0H                   ;Load the ACC with the ASCII code for space
 2001  0D03  CD 82 03     PCOM1:	CALL	ECHO                        ;Display the space
 2002  0D06  0D                      DCR	C                        ;Decrement the loop counter
 2003  0D07  C2 03 0D                JNZ	PCOM1                    ;Continue displaying spaces until loop counter is zero
 2004  0D0A  C9                      RET                          ;Then return to calling routine
 2005  0D0B  CD A0 08     LET0:	CALL	SAVESY                       ;Entry point for IMPLIED LET statement. Save the
 2006  0D0E  2E 82                   MVI	L,OFS_SCAN_PTR                   ;Variable (to left of the equal sign). Set L to the SCAN
 2007  0D10  26 16                   MVI	H,HIGH OLDPG26           ;** Pointer. Set H to the page of the SCAN pointer.
 2008  0D12  46                      MOV	B,M                      ;Fetch value of SCAN pointer. (Points to = sign in In bf)
 2009  0D13  2E 83                   MVI	L,OFS_TOKEN_STORE                   ;Change pointer to LET pointer (was TOKEN value)
 2010  0D15  70                      MOV	M,B                      ;Place the SCAN pointer value into the LET pointer
 2011  0D16  C3 61 0D                JMP	LET5                     ;Continue processing the LET statement line
 2012  0D19  CD AD 02     LET:	CALL	CLESYM                        ;Initialize the SYMBOL BUFFER for new entry
 2013  0D1C  2E 64                   MVI	L,OFS_FP_WORK+4                   ;Load L with address of start of AUX SYMBOL BUFF
 2014  0D1E  26 16                   MVI	H,HIGH OLDPG26           ;** Load H with page of AUX SYMBOL BUFFER
 2015  0D20  36 00                   MVI	M,000H                   ;Initialize AUX SYMBOL BUFFER
 2016  0D22  2E 82        LET1:	MVI	L,OFS_SCAN_PTR                        ;Entry point for ARRAY IMPLIED LET statement.
 2017  0D24  26 16                   MVI	H,HIGH OLDPG26           ;** Set pointer to SCAN pointer storage location
 2018  0D26  46                      MOV	B,M                      ;Fetch the SCAN pointer value (last letter scanned by
 2019  0D27  04                      INR	B                        ;SYNTAX subroutine) and add one to next character
 2020  0D28  2E 83                   MVI	L,OFS_TOKEN_STORE                   ;Change L to LET pointer storage location
 2021  0D2A  70                      MOV	M,B                      ;Store former SCAN value (updated) in LET pointer
 2022  0D2B  2E 83        LET2:	MVI	L,OFS_TOKEN_STORE                        ;Set L to gtorage location of LET pointer
 2023  0D2D  CD A0 02                CALL	GETCHR                  ;Fetch the character pointed to by the LET pointer
 2024  0D30  CA 52 0D                JZ	LET4                      ;If character is a space, ignore it
 2025  0D33  FE BD                   CPI	0BDH                     ;See if character is the equal (=) sign
 2026  0D35  CA 61 0D                JZ	LET5                      ;If so, go process other side of the statement (after
 2027  0D38  FE A8                   CPI	0A8H                     ;@@ If not, see if character is a right parenthesis
 2028  0D3A  C2 4B 0D                JNZ	LET3                     ;If not, continue looking for equal sign
 2029  0D3D  CD 65 2D                CALL	ARRAY                   ;@@ If so, have subscript. Call array set up subroutine.
 2030  0D40  2E 86                   MVI	L,OFS_ARRAY_SETUP                   ;@@ Load L with address of ARRAY pointer
 2031  0D42  26 16                   MVI	H,HIGH OLDPG26           ;@@ ** Load H with page of ARRAY pointer
 2032  0D44  46                      MOV	B,M                      ;@@ Fetch value (points to ")" character of subscript)
 2033  0D45  2E 83                   MVI	L,OFS_TOKEN_STORE                   ;@@ Load L with address of LET pointer
 2034  0D47  70                      MOV	M,B                      ;@@ Place ARRAY pointer value as new LET pointer
 2035  0D48  C3 52 0D                JMP	LET4                     ;@@ Continue to look for = sign in statement line
 2036  0D4B  2E 64        LET3:	MVI	L,OFS_FP_WORK+4                        ;Reset L to start of AUX SYMBOL BUFFER
 2037  0D4D  26 16                   MVI	H,HIGH OLDPG26           ;** Load H with page of AUX SYMBOL BUFFER
 2038  0D4F  CD CC 02                CALL	CONCT1                  ;Concatenate character to the AUX SYMBOL BUFFER
 2039  0D52  2E 83        LET4:	MVI	L,OFS_TOKEN_STORE                        ;Load L with address of LET pointer storage location
 2040  0D54  CD 03 03                CALL	LOOP                    ;Add one to pointer and test for end of line input buffer
 2041  0D57  C2 2B 0D                JNZ	LET2                     ;If not end of line, continue looking for the equal sign
 2042  0D5A  3E CC        LETERR:	MVI	A,0CCH                      ;If do not find an equal sign in the LET statement line
 2043  0D5C  0E C5                   MVI	C,0C5H                   ;Then have a LE (Let Error). Load the code for L and E
 2044  0D5E  C3 96 02                JMP	ERROR                    ;Into registers ACC and C and go display the error msg.
 2045  0D61  2E 83        LET5:	MVI	L,OFS_TOKEN_STORE                        ;When find the equal sign, reset L to point to the LET
 2046  0D63  26 16                   MVI	H,HIGH OLDPG26           ;** Pointer and H to the proper page. Fetch the pointer
 2047  0D65  46                      MOV	B,M                      ;Value into register B and add one to advance pointer
 2048  0D66  04                      INR	B                        ;Over the equal sign to first char in the expression.
 2049  0D67  2E BE                   MVI	L,OFS_EVAL_PTR                   ;Set L to point to the address of the EVAL pointer
 2050  0D69  70                      MOV	M,B                      ;Set EVAL pointer to start evaluating right after the
 2051  0D6A  2E 00                   MVI	L,OFS_LINE_INP_BUF                   ;Equal sign. Now change L to start of line input buffer.
 2052  0D6C  46                      MOV	B,M                      ;Fetch the (cc) value into register B. (Length of line.)
 2053  0D6D  2E BF                   MVI	L,OFS_EVAL_FINISH                   ;Load L with EVAL FINISH pointer storage location.
 2054  0D6F  70                      MOV	M,B                      ;Set it to stop evaluating at end of the line.
 2055  0D70  CD 94 03                CALL	EVAL                    ;Call the subroutine to evaluate the expression.
 2056  0D73  CD AA 08                CALL	RESTSY                  ;Restore the name of the variable to receive new value.
 2057  0D76  CD 2D 08                CALL	STOSYM                  ;Store the new value for the variable in variables table.
 2058  0D79  C3 4E 0B                JMP	NXTLIN                   ;Go process next line of the program.
 2059  0D7C  2E E8        GOTO:	MVI	L,OFS_AUX_LINENUM                        ;Load L with start of AUX LINE NR BUFFER
 2060  0D7E  26 16                   MVI	H,HIGH OLDPG26           ;** Load H with page of AUX LINE NR BUFFER
 2061  0D80  36 00                   MVI	M,000H                   ;Initialize the AUX LINE NR BUFFER to zero
 2062  0D82  2E 82                   MVI	L,OFS_SCAN_PTR                   ;Load L with address of SCAN pointer storage location
 2063  0D84  46                      MOV	B,M                      ;Fetch pointer value (last char scanned by SYNTAX)
 2064  0D85  04                      INR	B                        ;Add one to skip over the last 0 in GOTO keyword
 2065  0D86  2E 83                   MVI	L,OFS_TOKEN_STORE                   ;Change pointer to GOTO pointer (formerly TOKEN)
 2066  0D88  70                      MOV	M,B                      ;Store the updated SCAN pointer as the GOTO pointer
 2067  0D89  2E 83        GOTO1:	MVI	L,OFS_TOKEN_STORE                       ;Load L with address of GOTO pointer
 2068  0D8B  CD A0 02                CALL	GETCHR                  ;Fetch the character pointed to by the GOTO pointer
 2069  0D8E  CA A0 0D                JZ	GOTO2                     ;If character was a space, ignore it
 2070  0D91  FE B0                   CPI	0B0H                     ;See if character is in the range of a decimal digit
 2071  0D93  FA A8 0D                JM	GOTO3                     ;If not, must have end of the line number digit string
 2072  0D96  FE BA                   CPI	0BAH                     ;Continue to test for decitnal digit
 2073  0D98  F2 A8 0D                JP	GOTO3                     ;If not, mugt have end of the line number digit string
 2074  0D9B  2E E8                   MVI	L,OFS_AUX_LINENUM                   ;If valid decimal digit, load L with addr of AUX LINE
 2075  0D9D  CD CC 02                CALL	CONCT1                  ;NR BUFFER and concatenate digit to the buffer.
 2076  0DA0  2E 83        GOTO2:	MVI	L,OFS_TOKEN_STORE                       ;Reset pointer to GOTO pointer storage location
 2077  0DA2  CD 03 03                CALL	LOOP                    ;Advance the pointer value and test for end of line
 2078  0DA5  C2 89 0D                JNZ	GOTO1                    ;If not end of line, fetch next digit in GOTO line number
 2079  0DA8  2E F0        GOTO3:	MVI	L,OFS_TEMP_F0                       ;Set L to user program buffer pointer storage location
 2080  0DAA  26 16                   MVI	H,HIGH OLDPG26           ;** Set H to page of program buffer pointer
 2081  0DAC  36 1B                   MVI	M,BGNPGRAM               ;Initialize high part of pointer to start of pgm buffer
 2082  0DAE  2C                      INR	L                        ;Advance the memory point
 2083  0DAF  36 00                   MVI	M,000H                   ;Initialize the low part of pointer to start of pgm buffer
 2084  0DB1  CD AD 02     GOTO4:	CALL	CLESYM                      ;Clear the SYMBOL BUFFER
 2085  0DB4  2E 84                   MVI	L,OFS_TEMP_ARRAY                   ;Load L with address of GOTO SEARCH pointer
 2086  0DB6  36 01                   MVI	M,001H                   ;Initialize to one for first char of line
 2087  0DB8  2E 84        GOTO5:	MVI	L,OFS_TEMP_ARRAY                       ;Load L with address of GOTO SEARCH pointer
 2088  0DBA  CD 53 0A                CALL	GETCHP                  ;Fetch character pointed to by GOTO SEARCH pointer
 2089  0DBD  CA CD 0D                JZ	GOTO6                     ;From line pointed to in user program buffer. Ignore
 2090  0DC0  FE B0                   CPI	0B0H                     ;Spaces. Check to see if character is a decirnal digit.
 2091  0DC2  FA E0 0D                JM	GOTO7                     ;If not, then have processed line number at the start of
 2092  0DC5  FE BA                   CPI	0BAH                     ;The current line. Continue the check for a valid decimal
 2093  0DC7  F2 E0 0D                JP	GOTO7                     ;Digit. If have a decirnal digit then concatenate the digit
 2094  0DCA  CD C8 02                CALL	CONCTS                  ;Onto the current string in the SYMBOL BUFFER,
 2095  0DCD  2E 84        GOTO6:	MVI	L,OFS_TEMP_ARRAY                       ;Change L to the address of the GOTO SEARCH pointer
 2096  0DCF  26 16                   MVI	H,HIGH OLDPG26           ;** And H to the proper page of the pointer
 2097  0DD1  46                      MOV	B,M                      ;Fetch the GOTO SEARCH pointer value
 2098  0DD2  04                      INR	B                        ;Increment the GOTO SEARCH pointer
 2099  0DD3  70                      MOV	M,B                      ;And restore it back to memory
 2100  0DD4  2E F0                   MVI	L,OFS_TEMP_F0                   ;Change L to address of user program buffer pointer
 2101  0DD6  4E                      MOV	C,M                      ;Save the high part of this pointer value in register C
 2102  0DD7  2C                      INR	L                        ;Advance L to the low part of the pgrn buffer pointer
 2103  0DD8  6E                      MOV	L,M                      ;Now load it into L
 2104  0DD9  61                      MOV	H,C                      ;And transfer C into H to point to start of the line
 2105  0DDA  7E                      MOV	A,M                      ;Fetch the (cc) of the current line being pointed to in the
 2106  0DDB  05                      DCR	B                        ;User pgm buff. Decrernent B to previous value. Compare
 2107  0DDC  B8                      CMP	B                        ;GOTO SEARCH pointer value to length of current line.
 2108  0DDD  C2 B8 0D                JNZ	GOTO5                    ;If not end of line then continue getting current line nr.
 2109  0DE0  2E 50        GOTO7:	MVI	L,OFS_SYMBOL_BUF                       ;Load L with address of start of the SYMBOL BUFFER
 2110  0DE2  26 16                   MVI	H,HIGH OLDPG26           ;Set H to the page of the SYMBOL BUFFER
 2111  0DE4  16 16                   MVI	D,HIGH OLDPG26           ;Set D to the page of the AUX LINE NR BUFFER
 2112  0DE6  1E E8                   MVI	E,OFS_AUX_LINENUM                   ;Set E to the start of the AUX LINE NR BUFFER
 2113  0DE8  CD DA 02                CALL	STRCP                   ;Compare GOTO line number against current line nr.
 2114  0DEB  CA 6E 0B                JZ	SAMLIN                    ;If they match, found GOTO line. Pick up ops there!
 2115  0DEE  2E F0                   MVI	L,OFS_TEMP_F0                   ;Else, set L to user program buffer pntr storage location
 2116  0DF0  26 16                   MVI	H,HIGH OLDPG26           ;** Set H to page of user program buffer pointer
 2117  0DF2  56                      MOV	D,M                      ;Fetch the high part of this pointer into register D
 2118  0DF3  2C                      INR	L                        ;Advance the memory pointer
 2119  0DF4  5E                      MOV	E,M                      ;Fetch the low part into register E
 2120  0DF5  62                      MOV	H,D                      ;Transfer the pointer to H
 2121  0DF6  6B                      MOV	L,E                      ;And L. Fetch the (cc) of the current line into register
 2122  0DF7  46                      MOV	B,M                      ;B and then add one to account for the (cc) byte to get
 2123  0DF8  04                      INR	B                        ;Total length of the current line in the user pgm buffer
 2124  0DF9  CD C5 0A                CALL	ADBDE                   ;Add the total length to the pointer value in D & E
 2125  0DFC  2E F0                   MVI	L,OFS_TEMP_F0                   ;To get the starting address of the next line in the user
 2126  0DFE  26 16                   MVI	H,HIGH OLDPG26           ;** User program buffer. Place the new value for the user
 2127  0E00  72                      MOV	M,D                      ;Program buffer pointer back into the user program
 2128  0E01  2C                      INR	L                        ;Buffer pointer storage locations so that it points to the
 2129  0E02  73                      MOV	M,E                      ;Next line to be processed in the user program buffer.
 2130  0E03  2E F4                   MVI	L,OFS_TEMP_F4                   ;Load L with address of end of user pgm buffer storage
 2131  0E05  7A                      MOV	A,D                      ;Location (page address) and fetch end of buffer page.
 2132  0E06  BE                      CMP	M                        ;Compare this with next line pointer (updated).
 2133  0E07  C2 B1 0D                JNZ	GOTO4                    ;If not end of buffer, keep looking for the specified line
 2134  0E0A  2C                      INR	L                        ;If have same page addresses, check the low address
 2135  0E0B  7B                      MOV	A,E                      ;Portions to see if
 2136  0E0C  BE                      CMP	M                        ;Have reached end of user program buffer
 2137  0E0D  C2 B1 0D                JNZ	GOTO4                    ;If not, continue looking. If end of buffer without
 2138  0E10  3E D5        GOTOER:	MVI	A,0D5H                      ;Finding specified line, then have an error condition.
 2139  0E12  0E CE                   MVI	C,0CEH                   ;Load ACC and register C with code for "UN" and go
 2140  0E14  C3 96 02                JMP	ERROR                    ;Display "Undefined Line" error message.
 2141  0E17  2E 82        IF:	MVI	L,OFS_SCAN_PTR                          ;Set L to SCAN pointer storage location.
 2142  0E19  26 16                   MVI	H,HIGH OLDPG26           ;** Load H to page of SCAN pointer storage location.
 2143  0E1B  46                      MOV	B,M                      ;Fetch the SCAN pointer value to register B.
 2144  0E1C  04                      INR	B                        ;Add one to advance pointer over last char scanned.
 2145  0E1D  2E BE                   MVI	L,OFS_EVAL_PTR                   ;Change L to address of EVAL pointer. Set up EVAL
 2146  0E1F  70                      MOV	M,B                      ;Pointer to begin evaluation with next char in the line.
 2147  0E20  CD AD 02                CALL	CLESYM                  ;Clear the SYMBOL BUFFER.
 2148  0E23  2E D0                   MVI	L,OFS_KW_THEN                   ;Set L to starting address of THEN in look-up table.
 2149  0E25  26 01                   MVI	H,HIGH OLDPG1            ;** Set H to page of the look-up table.
 2150  0E27  CD 0A 0B                CALL	INSTR                   ;Search for occurrence of THEN in the line input buffer.
 2151  0E2A  7B                      MOV	A,E                      ;Transfer register E to ACC. If THEN not found
 2152  0E2B  A7                      ANA	A                        ;The value in E will be zero.
 2153  0E2C  C2 42 0E                JNZ	IF1                      ;If THEN found, can evaluate the IF expression.
 2154  0E2F  2E 0B                   MVI	L,OFS_EXP_COUNTER                   ;If THEN not found, set L to Auting address of GOTO
 2155  0E31  26 17                   MVI	H,HIGH OLDPG27           ;** In the KEYWORD look-up table. Set H to table
 2156  0E33  CD 0A 0B                CALL	INSTR                   ;Search for occurrence of GOTO in the line input buffer.
 2157  0E36  7B                      MOV	A,E                      ;Transfer E to ACC. If GOTO not found
 2158  0E37  A7                      ANA	A                        ;The value in E will be zero.
 2159  0E38  C2 42 0E                JNZ	IF1                      ;If GOTO found, can evaluate the IF expression.
 2160  0E3B  3E C9        IFERR:	MVI	A,0C9H                       ;Set ASCII code for letter I in ACC
 2161  0E3D  0E C6                   MVI	C,0C6H                   ;And code for letter F in register C
 2162  0E3F  C3 96 02                JMP	ERROR                    ;Go display the IF error message
 2163  0E42  2E BF        IF1:	MVI	L,OFS_EVAL_FINISH                         ;Load L with addr of EVAL FINISH pointer storage loc
 2164  0E44  26 16                   MVI	H,HIGH OLDPG26           ;** Load H with page of storage location
 2165  0E46  1D                      DCR	E                        ;Subtract one from pointer in E and set the EVAL
 2166  0E47  73                      MOV	M,E                      ;FINISH pointer so that it will evaluate up to the THEN
 2167  0E48  CD 94 03                CALL	EVAL                    ;Or GOTO directive. Evaluate the expression.
 2168  0E4B  2E 56                   MVI	L,OFS_FPACC_MSW                   ;Load L with address of FPACC Most Significant Word
 2169  0E4D  26 01                   MVI	H,HIGH OLDPG1            ;** Load H with page of FPACC MSW
 2170  0E4F  7E                      MOV	A,M                      ;Fetch the FPACC MSW into the accumulator
 2171  0E50  A7                      ANA	A                        ;Test the value of the FPACC MSW
 2172  0E51  CA 4E 0B                JZ	NXTLIN                    ;If it is zero, IF condition failed, ignore rest of line.
 2173  0E54  2E BF                   MVI	L,OFS_EVAL_FINISH                   ;If not, load L with addr of EVAL FINISH pointer
 2174  0E56  26 16                   MVI	H,HIGH OLDPG26           ;** Set H to the appmpriate page
 2175  0E58  7E                      MOV	A,M                      ;Fetch the value in the EVAL FINISH pointer
 2176  0E59  C6 05                   ADI	005H                     ;Add five to skip over THEN or GOTO directive
 2177  0E5B  2E 82                   MVI	L,OFS_SCAN_PTR                   ;Change L to SCAN pointer stomge location
 2178  0E5D  77                      MOV	M,A                      ;Set up the SCAN pointer to location after THEN or
 2179  0E5E  47                      MOV	B,A                      ;GOTO directive. Also put this value in register B.
 2180  0E5F  04                      INR	B                        ;Add one to the value in B to point to next character
 2181  0E60  2E 84                   MVI	L,OFS_TEMP_ARRAY                   ;After THEN or GOTO. Change L to addr of THEN pntr
 2182  0E62  70                      MOV	M,B                      ;Storage location and store the pointer value.
 2183  0E63  2E 84        IF2:	MVI	L,OFS_TEMP_ARRAY                         ;Load L with the address of the THEN pointer
 2184  0E65  CD A0 02                CALL	GETCHR                  ;Fetch the character pointed to by the THEN pointer
 2185  0E68  C2 76 0E                JNZ	IF3                      ;If character is not a space, exit this loop
 2186  0E6B  2E 84                   MVI	L,OFS_TEMP_ARRAY                   ;If fetch a space, ignore. Reset L to the THEN pointer
 2187  0E6D  CD 03 03                CALL	LOOP                    ;Add one to the THEN pointer and test for end of line
 2188  0E70  C2 63 0E                JNZ	IF2                      ;If not end of line, keep looking for a character other
 2189  0E73  C3 3B 0E                JMP	IFERR                    ;Than a space. If reach end of line first, then error
 2190  0E76  FE B0        IF3:	CPI	0B0H                           ;When find a character see if it is numeric.
 2191  0E78  FA 80 0E                JM	IF4                       ;If not numeric, then should have a new type of
 2192  0E7B  FE BA                   CPI	0BAH                     ;Statement. If numeric, then should have a line number.
 2193  0E7D  FA 7C 0D                JM	GOTO                      ;So process as though have a GOTO statement!
 2194  0E80  2E 00        IF4:	MVI	L,OFS_LINE_INP_BUF                         ;Load L with addr of start of line input buffer.
 2195  0E82  7E                      MOV	A,M                      ;Fetch the (cc) byte to get length of line value.
 2196  0E83  2E 84                   MVI	L,OFS_TEMP_ARRAY                   ;Change L to current value of THEN pointer (where first
 2197  0E85  96                      SUB	M                        ;Non-space char. found after THEN or GOTO). Subtract
 2198  0E86  47                      MOV	B,A                      ;This value from length of line to get remainder. Now
 2199  0E87  04                      INR	B                        ;Have length of second statement portion. Add one for
 2200  0E88  4E                      MOV	C,M                      ;(cc) count. Save THEN pointer value in register C.
 2201  0E89  2E 00                   MVI	L,OFS_LINE_INP_BUF                   ;Reset L to start of line input buffer. Now put length of
 2202  0E8B  70                      MOV	M,B                      ;Second statement into (cc) position of input buffer.
 2203  0E8C  69                      MOV	L,C                      ;Set L to where second statement starts.
 2204  0E8D  16 16                   MVI	D,HIGH OLDPG26           ;** Set D to page of line input buffer.
 2205  0E8F  1E 01                   MVI	E,001H                   ;Set E to first character position of line input buffer.
 2206  0E91  CD 0B 11                CALL	MOVEIT                  ;Move the second statement up in line to become first!
 2207  0E94  2E 82                   MVI	L,OFS_SCAN_PTR                   ;Load L with address of new SCAN pointer. Load
 2208  0E96  36 01                   MVI	M,001H                   ;It with starting position for SYNTAX scan.
 2209  0E98  CD 37 02                CALL	SYNTX4                  ;Use special entry to SYNTAX to get new TOKEN value.
 2210  0E9B  C3 89 0B                JMP	DIRECT                   ;Process the second statement in the original line.
 2211  0E9E  2E E0        GOSUB:	MVI	L,OFS_LINENUM_BUF                       ;Load L with start of LINE NUMBER BUFFER
 2212  0EA0  26 16                   MVI	H,HIGH OLDPG26           ;Fetch (cc) of cuffent line number into register D
 2213  0EA2  56                      MOV	D,M                      ;Fetch high value (page) of pgm line pointer to D
 2214  0EA3  14                      INR	D                        ;Test contents of register by first incrementing
 2215  0EA4  15                      DCR	D                        ;And then decrementing the value in the register
 2216  0EA5  CA AD 0E                JZ	GOSUB1                    ;If no line number, then processing a DIRECT statement
 2217  0EA8  2E F0                   MVI	L,OFS_TEMP_F0                   ;Else, load L with address of user pgm buff line pointer
 2218  0EAA  56                      MOV	D,M                      ;Fetch high value (page) of pgm line pointer to D
 2219  0EAB  2C                      INR	L                        ;Advance the memory pointer
 2220  0EAC  5E                      MOV	E,M                      ;Fetch the low part of pgm line pointer to E
 2221  0EAD  2E 3B        GOSUB1:	MVI	L,OFS_GOSUB_STK_BASE                      ;Set L to address of GOSUB STACK POINTER
 2222  0EAF  26 17                   MVI	H,HIGH OLDPG27           ;** Set H to page of GOSUB STACK POINTER
 2223  0EB1  7E                      MOV	A,M                      ;Fetch value in GOSUB stack pointer to ACC
 2224  0EB2  C6 02                   ADI	002H                     ;Add two to current stack pointer for new data to be
 2225  0EB4  FE 11                   CPI	011H                     ;Placed on the stack and see if stack overflows
 2226  0EB6  F2 E7 0E                JP	GOSERR                    ;If stack filled, have an error condition
 2227  0EB9  77                      MOV	M,A                      ;Else, store updated stack pointer
 2228  0EBA  2E 3E                   MVI	L,OFS_ARRAY_TEMP                   ;Load L with address of start of stack less offset (2)
 2229  0EBC  85                      ADD	L                        ;Add GOSUB stack pointer to base address
 2230  0EBD  6F                      MOV	L,A                      ;To get pointer to top of stack (page byte)
 2231  0EBE  72                      MOV	M,D                      ;Store page part of pgm buffer line pointer in stack
 2232  0EBF  2C                      INR	L                        ;Advance pointer to next byte in stack
 2233  0EC0  73                      MOV	M,E                      ;Store low part of pgm buffer line pointer in stack
 2234  0EC1  C3 7C 0D                JMP	GOTO                     ;Proceed from here as though processing a GOTO
 2235  0EC4  2E 3B        RETURN:	MVI	L,OFS_GOSUB_STK_BASE                      ;Set L to address of GOSUB STACK POINTER
 2236  0EC6  26 17                   MVI	H,HIGH OLDPG27           ;** Set H to page of GOSUB STACK POINTER
 2237  0EC8  7E                      MOV	A,M                      ;Fetch the value of GOSUB stack pointer to ACC
 2238  0EC9  D6 02                   SUI	002H                     ;Subtract two for data to be removed from stack
 2239  0ECB  FA EE 0E                JM	RETERR                    ;If stack underflow, then have an error condition
 2240  0ECE  77                      MOV	M,A                      ;Restore new stack pointer to memory
 2241  0ECF  C6 02                   ADI	002H                     ;Add two to point to previous top of stack
 2242  0ED1  2E 3E                   MVI	L,OFS_ARRAY_TEMP                   ;Load L with address of start of GOSUB stack less two
 2243  0ED3  85                      ADD	L                        ;Add address of previous top of stack to base value
 2244  0ED4  6F                      MOV	L,A                      ;Set pointer to high address value in the stack
 2245  0ED5  56                      MOV	D,M                      ;Fetch the high address value from stack to register D
 2246  0ED6  14                      INR	D                        ;Exercise the register contents to see if high address
 2247  0ED7  15                      DCR	D                        ;Obtained is zero. If so, original GOSUB statement was
 2248  0ED8  CA B6 08                JZ	EXEC                      ;A DIRECT statement. Must return to Executive!
 2249  0EDB  2C                      INR	L                        ;Else, advance pointer to get low address value from the
 2250  0EDC  5E                      MOV	E,M                      ;Stack into CPU register E.
 2251  0EDD  2E F0                   MVI	L,OFS_TEMP_F0                   ;Load L with address of user pgm line pointer storage
 2252  0EDF  26 16                   MVI	H,HIGH OLDPG26           ;** Location. Load H with page of user pgm line pntr.
 2253  0EE1  72                      MOV	M,D                      ;Put high address from stack into pgm line pointer.
 2254  0EE2  2C                      INR	L                        ;Advance the memory pointer
 2255  0EE3  73                      MOV	M,E                      ;Put low address from stack into pgrn line pointer.
 2256  0EE4  C3 4E 0B                JMP	NXTLIN                   ;Execute the next line after originating GOSUB line!
 2257  0EE7  3E C7        GOSERR:	MVI	A,0C7H                      ;Load ASCII code for letter G into accumulator
 2258  0EE9  0E D3                   MVI	C,0D3H                   ;Load ASCII code for letter S into register C
 2259  0EEB  C3 96 02                JMP	ERROR                    ;Go display GoSub (GS) error message.
 2260  0EEE  3E D2        RETERR:	MVI	A,0D2H                      ;Load ASCII code for letter R into accumulator
 2261  0EF0  0E D4                   MVI	C,0D4H                   ;Load ASCII code for letter T into register C
 2262  0EF2  C3 96 02                JMP	ERROR                    ;Go display ReTurn (RT) error message.
 2263  0EF5  CD AD 02     INPUT:	CALL	CLESYM                      ;Clear the SYMBOL BUFFER
 2264  0EF8  2E 82                   MVI	L,OFS_SCAN_PTR                   ;Load L with address of SCAN pointer storage location
 2265  0EFA  46                      MOV	B,M                      ;Fetch value of SCAN pointer to register B
 2266  0EFB  04                      INR	B                        ;Increment value to point to next chamcter
 2267  0EFC  2E 83                   MVI	L,OFS_TOKEN_STORE                   ;Change L to point to INPUT pointer (formerly TOKEN)
 2268  0EFE  70                      MOV	M,B                      ;Updated SCAN pointer becomes INPUT pointer
 2269  0EFF  2E 83        INPUT1:	MVI	L,OFS_TOKEN_STORE                      ;Load L with address of INPUT pointer
 2270  0F01  CD A0 02                CALL	GETCHR                  ;Fetch a character from the line input buffer
 2271  0F04  CA 22 0F                JZ	INPUT3                    ;If character is a space, ignore it. Else,
 2272  0F07  FE AC                   CPI	0ACH                     ;See if character is a comma. If so, process the
 2273  0F09  CA 33 0F                JZ	INPUT4                    ;Variable that preceeds the comma.
 2274  0F0C  FE A8                   CPI	0A8H                     ;If not, see if character is a left parenthesis.
 2275  0F0E  C2 1F 0F                JNZ	INPUT2                   ;If not, continue processing to build up symbolic variable
 2276  0F11  CD 70 2D                CALL	ARRAY2                  ;@@ If so, call array subscripting subroutine
 2277  0F14  2E 86                   MVI	L,OFS_ARRAY_SETUP                   ;@@ Load L with address of array set up pointer
 2278  0F16  26 16                   MVI	H,HIGH OLDPG26           ;@@ ** Load H with page of array set up pointer
 2279  0F18  46                      MOV	B,M                      ;@@ Fetch pointer value (point to ")" of subscript)
 2280  0F19  2E 83                   MVI	L,OFS_TOKEN_STORE                   ;@@ Change pointer to address of INPUT pointer
 2281  0F1B  70                      MOV	M,B                      ;@@ Update INPUT pointer
 2282  0F1C  C3 22 0F                JMP	INPUT3                   ;@@ Jump over concatenate instruction below
 2283  0F1F  CD C8 02     INPUT2:	CALL	CONCTS                     ;Concatenate character to SYMBOL BUFFER
 2284  0F22  2E 83        INPUT3:	MVI	L,OFS_TOKEN_STORE                      ;Load L with address of INPUT pointer
 2285  0F24  CD 03 03                CALL	LOOP                    ;Increment INPUT pointer and test for end of line
 2286  0F27  C2 FF 0E                JNZ	INPUT1                   ;If not end of line, go get next character
 2287  0F2A  CD 44 0F                CALL	INPUTX                  ;If end of buffer, get input for variable in the SYMBOL
 2288  0F2D  CD 2D 08                CALL	STOSYM                  ;BUFFER and store the value in the VARIABLES table
 2289  0F30  C3 4E 0B                JMP	NXTLIN                   ;Then continue to interpret next statement line
 2290  0F33  CD 44 0F     INPUT4:	CALL	INPUTX                     ;Get input from user for variable in SYMBOL BUFFER
 2291  0F36  CD 2D 08                CALL	STOSYM                  ;Store the inputted value in the VARIABLES table
 2292  0F39  26 16                   MVI	H,HIGH OLDPG26           ;** Set H to page of INPUT pointer
 2293  0F3B  2E 83                   MVI	L,OFS_TOKEN_STORE                   ;Set L to location of INPUT pointer
 2294  0F3D  46                      MOV	B,M                      ;Fetch pointer value for last character examined
 2295  0F3E  2E 82                   MVI	L,OFS_SCAN_PTR                   ;Change L to point to SCAN pointer storage location
 2296  0F40  70                      MOV	M,B                      ;Update the SCAN pointer
 2297  0F41  C3 F5 0E                JMP	INPUT                    ;Continue processing statement line for next variable
 2298  0F44  2E 50        INPUTX:	MVI	L,OFS_SYMBOL_BUF                      ;Load L with start of SYMBOL BUFFER (contains cc)
 2299  0F46  7E                      MOV	A,M                      ;Fetch the (cc) (length of symbol in the buffer) to ACC
 2300  0F47  85                      ADD	L                        ;Add (cc) to base address to set up
 2301  0F48  6F                      MOV	L,A                      ;Pointer to last character in the SYMBOL BUFFER
 2302  0F49  7E                      MOV	A,M                      ;Fetch the last character in the SYMBOL BUFFER
 2303  0F4A  FE A4                   CPI	0A4H                     ;See if the last chamcter was a $ sign
 2304  0F4C  C2 60 0F                JNZ	INPUTN                   ;If not a $ sign, get variable value as a numerical entry
 2305  0F4F  2E 50                   MVI	L,OFS_SYMBOL_BUF                   ;If $ sign, reset L to start of the SYMBOL BUFFER
 2306  0F51  46                      MOV	B,M                      ;Fetch the (cc) for the variable in the SYMBOL BUFF
 2307  0F52  05                      DCR	B                        ;Subtract one from (cc) to chop off the $ sign
 2308  0F53  70                      MOV	M,B                      ;Restore the new (cc) for the SYMBOL BUFFER
 2309  0F54  CD 6F 0F                CALL	FP0                     ;Call subroutine to zero the floating point accumulator
 2310  0F57  CD 91 03                CALL	CINPUT                  ;Input one character from system input device
 2311  0F5A  2E 54                   MVI	L,OFS_FPACC                   ;Load L with address of the LSW of the FPACC
 2312  0F5C  77                      MOV	M,A                      ;Place the ASCII code for the character inputted there
 2313  0F5D  C3 34 10                JMP	FPFLT                    ;Convert value to floating point format in FPACC
 2314  0F60  2E 64        INPUTN:	MVI	L,OFS_FP_WORK+4                      ;Load L with address of start of AUX SYMBOL BUFF
 2315  0F62  26 16                   MVI	H,HIGH OLDPG26           ;** Load H with page of AUX SYMBOL BUFFER
 2316  0F64  3E BF                   MVI	A,0BFH                   ;Load accumulator with ASCII code for ? mark
 2317  0F66  CD 82 03                CALL	ECHO                    ;Call output subroutine to display the ? mark
 2318  0F69  CD 0C 03                CALL	STRIN                   ;Input string of characters (number) fm input device
 2319  0F6C  C3 24 13                JMP	DINPUT                   ;Convert decimal string into binary floating point nr.
 2320  0F6F  26 01        FP0:	MVI	H,HIGH OLDPG1                  ;** Load H with floating point working registers page
 2321  0F71  C3 A7 06                JMP	CFALSE                   ;Zero the floating point accumulator & exit to caller
 2322  0F74  2E 64        FOR:	MVI	L,OFS_FP_WORK+4                         ;Load L with address of AUX SYMBOL BUFFER
 2323  0F76  26 16                   MVI	H,HIGH OLDPG26           ;** Load H with page of AUX SYMBOL BUFFER
 2324  0F78  36 00                   MVI	M,000H                   ;Initialize buffer by clearing first byte
 2325  0F7A  2E 66                   MVI	L,OFS_FP_WORK_66                   ;Load L with location of second character in buffer
 2326  0F7C  36 00                   MVI	M,000H                   ;Clear that location in case of single character variable
 2327  0F7E  2E 85                   MVI	L,OFS_TEMP_085                   ;Load L with address of FOR/NEXT STACK pointer
 2328  0F80  26 17                   MVI	H,HIGH OLDPG27           ;** Load H with page of FOR/NEXT STACK pointer
 2329  0F82  46                      MOV	B,M                      ;Fetch the FOR/NEXT STACK pointer
 2330  0F83  04                      INR	B                        ;Increment it in preparation for pushing operation
 2331  0F84  70                      MOV	M,B                      ;Restore it back to its storage location
 2332  0F85  2E F0                   MVI	L,OFS_TEMP_F0                   ;Load L with address of user pgrn buffer line pointer
 2333  0F87  26 16                   MVI	H,HIGH OLDPG26           ;** Set H to page of line pointer
 2334  0F89  56                      MOV	D,M                      ;Fetch page address of pgm buffer line pntr into D
 2335  0F8A  2C                      INR	L                        ;Advance the memory pointer to pick up low part
 2336  0F8B  5E                      MOV	E,M                      ;Fetch low address of pgm buffer line pntr into E
 2337  0F8C  78                      MOV	A,B                      ;Restore updated FOR/NEXT STACK pointer to ACC
 2338  0F8D  07                      RLC                          ;Rotate it left to multiply by two, then rotate it again to
 2339  0F8E  07                      RLC                          ;Multiply by four. Add this value to the base address of
 2340  0F8F  C6 5C                   ADI	05CH                     ;The FOR/NEXT STACK to point to the new top of
 2341  0F91  6F                      MOV	L,A                      ;The FOR/NEXT STACK and set up to point to stack
 2342  0F92  26 17                   MVI	H,HIGH OLDPG27           ;** Set H for page of the FOR/NEXT STACK
 2343  0F94  72                      MOV	M,D                      ;Store the page portion of the user pgrn buffer line pntr
 2344  0F95  2C                      INR	L                        ;In the FORINEXT STACK, advance register 4 then
 2345  0F96  73                      MOV	M,E                      ;Store the low portion of the pgrn line pntr on the stack
 2346  0F97  2E D5                   MVI	L,OFS_KW_TO                   ;Change L to point to start of TO string which is stored
 2347  0F99  26 01                   MVI	H,HIGH OLDPG1            ;** In a text strings storage area on this page
 2348  0F9B  CD 0A 0B                CALL	INSTR                   ;Search the statement line for the occurrence of TO
 2349  0F9E  7B                      MOV	A,E                      ;Register E wiU be zero if TO not found. Move E to ACC
 2350  0F9F  A7                      ANA	A                        ;To make a test
 2351  0FA0  C2 AA 0F                JNZ	FOR1                     ;If TO found then proceed with FOR statement
 2352  0FA3  3E C6        FORERR:	MVI	A,0C6H                      ;Else have a For Error. Load ACC with ASCII code for
 2353  0FA5  0E C5                   MVI	C,0C5H                   ;Letter F and register C with code for letter E.
 2354  0FA7  C3 96 02                JMP	ERROR                    ;Then go display the FE message.
 2355  0FAA  2E 82        FOR1:	MVI	L,OFS_SCAN_PTR                        ;Load L with address of SCAN pointer storage location
 2356  0FAC  26 16                   MVI	H,HIGH OLDPG26           ;** Set H to page of the SCAN pointer
 2357  0FAE  46                      MOV	B,M                      ;Fetch pointer value to ACC (points to letter R in the
 2358  0FAF  04                      INR	B                        ;For directive). Increment it to point to next character
 2359  0FB0  2E 84                   MVI	L,OFS_TEMP_ARRAY                   ;In the line. Change register L and set this value up
 2360  0FB2  70                      MOV	M,B                      ;As an updated FOR pointer.
 2361  0FB3  2E 83                   MVI	L,OFS_TOKEN_STORE                   ;Set L to address of TO pointer (formerly TOKEN)
 2362  0FB5  73                      MOV	M,E                      ;Save pointer to TO in the TO pointer!
 2363  0FB6  2E 84        FOR2:	MVI	L,OFS_TEMP_ARRAY                        ;Load L with address of the FOR pointer
 2364  0FB8  CD A0 02                CALL	GETCHR                  ;Fetch a character from the statement line
 2365  0FBB  CA C8 0F                JZ	FOR3                      ;If it is a space, ignore it
 2366  0FBE  FE BD                   CPI	0BDH                     ;Test to see if character is the "=" sign
 2367  0FC0  CA D3 0F                JZ	FOR4                      ;If so, variable name is in the AUX SYMBOLBUFFER
 2368  0FC3  2E 64                   MVI	L,OFS_FP_WORK+4                   ;If not, then set L to point to start of the AUX SYMBOL
 2369  0FC5  CD CC 02                CALL	CONCT1                  ;BUFFER and concatenate the character onto the buffer
 2370  0FC8  2E 84        FOR3:	MVI	L,OFS_TEMP_ARRAY                        ;Reset L to address of the FOR pointer
 2371  0FCA  CD 03 03                CALL	LOOP                    ;Increment the pointer and see if end of line
 2372  0FCD  C2 B6 0F                JNZ	FOR2                     ;If not end of line, continue looking for the "=" sign
 2373  0FD0  C3 A3 0F                JMP	FORERR                   ;If reach end of line before "=" sign, then have error
 2374  0FD3  2E 84        FOR4:	MVI	L,OFS_TEMP_ARRAY                        ;Set L with address of the FOR pointer
 2375  0FD5  46                      MOV	B,M                      ;Fetch pointer value to ACC (pointing to sign)
 2376  0FD6  04                      INR	B                        ;Increment it to skip over the "=" sign
 2377  0FD7  2E BE                   MVI	L,OFS_EVAL_PTR                   ;Set L to address of the EVAL pointer
 2378  0FD9  70                      MOV	M,B                      ;Restore the updated pointer to storage
 2379  0FDA  2E 83                   MVI	L,OFS_TOKEN_STORE                   ;Set L to the address of the TO pointer
 2380  0FDC  46                      MOV	B,M                      ;Fetch pointer value to ACC (pointing to letter T in TO)
 2381  0FDD  05                      DCR	B                        ;Decrement it to point to character before the T in TO
 2382  0FDE  2E BF                   MVI	L,OFS_EVAL_FINISH                   ;Set L to EVAL FINISH pointer storage location
 2383  0FE0  70                      MOV	M,B                      ;Store the EVAL FINISH pointer value
 2384  0FE1  CD 94 03                CALL	EVAL                    ;Evaluate the expression between the "=" sign and TO
 2385  0FE4  CD AA 08                CALL	RESTSY                  ;Directive. Place the variable name in the variables table.
 2386  0FE7  2E 64                   MVI	L,OFS_FP_WORK+4                   ;Load L with starting address of the AUX SYMBOL BF
 2387  0FE9  26 16                   MVI	H,HIGH OLDPG26           ;** Load H with the page of the AUX SYMBOL BUFF
 2388  0FEB  7E                      MOV	A,M                      ;Fetch the (cc) for the name in the buffer
 2389  0FEC  FE 01                   CPI	001H                     ;See if the symbol (name) length is just one character
 2390  0FEE  C2 A6 19                JNZ	FOR5                     ;If not, go directly to place name in FOR/NEXT STACK
 2391  0FF1  2E 66                   MVI	L,OFS_FP_WORK_66                   ;If so, set L to point to second character location in the
 2392  0FF3  36 00                   MVI	M,000H                   ;AUX SYMBOL BUFFER and set it equal to zero.
 2393  0FF5  C3 A6 19                JMP	FOR5                     ;This jump directs program over ontrs/cntrs/table area
 2394                     ;;; LAST LINE SHOULD START AT 17 365
 2395                     ;;; PATCH AREA FOLLOWS THIS
 2396                     	
 2397                     	ORG	01000H
 2398  1000  2E 56        FPFIX:	MVI	L,OFS_FPACC_MSW                       ;Set L to point to MSW of FPACC
 2399  1002  26 01                   MVI	H,HIGH OLDPG1            ;** Set H to point to page of FPACC
 2400  1004  7E                      MOV	A,M                      ;Fetch MSW of FPACC
 2401  1005  2E 40                   MVI	L,OFS_SIGN_IND1                   ;Change pointer to SIGN indicator on same page
 2402  1007  77                      MOV	M,A                      ;Place MSW of FPACC into SIGN indicator
 2403  1008  A7                      ANA	A                        ;Now test sign bit of MSW of FPACC
 2404  1009  FC 82 10                CM	FPCOMP                    ;Two's complement value in FPACC if negative
 2405  100C  2E 57                   MVI	L,OFS_FPACC_EXP                   ;Change pointer to FPACC Exponent register
 2406  100E  3E 17                   MVI	A,017H                   ;Set accumulator to 23 (decimal) for number of bits
 2407  1010  46                      MOV	B,M                      ;Load FPACC Exponent into CPU register B
 2408  1011  04                      INR	B                        ;Exercise the value in register B
 2409  1012  05                      DCR	B                        ;To set CPU flags
 2410  1013  FA 29 10                JM	FPZERO                    ;If FPACC Exponent is negative set FPACC to zero
 2411  1016  90                      SUB	B                        ;Subtract value of FPACC Exponent from 23 decimal
 2412  1017  FA F6 0A                JM	FIXERR                    ;If Exp larger than 23 decimal cannot convert
 2413  101A  4F                      MOV	C,A                      ;Else place result in register C as counter for number
 2414  101B  2E 56        FPFIXL:	MVI	L,OFS_FPACC_MSW                      ;Of rotate ops. Set pointer to MSW of FPACC
 2415  101D  06 03                   MVI	B,003H                   ;Set precision counter (number of bytes in mantissa)
 2416  101F  CD 89 12                CALL	ROTATR                  ;Rotate FPACC right the number of places indicated
 2417  1022  0D                      DCR	C                        ;By count in register C to effectively rotate all the
 2418  1023  C2 1B 10                JNZ	FPFIXL                   ;Significant bits to the left of the floating point decimal
 2419  1026  C3 7D 10                JMP	RESIGN                   ;Point. Go check original sign & negate answer if req'd.
 2420                     
 2421                                                       ;Following subroutine clears the FPACC to the zero
 2422                                                       ;condition.
 2423                     
 2424  1029  2E 56        FPZERO:	MVI	L,OFS_FPACC_MSW                      ;Set L to point to MSW of FPACC
 2425  102B  AF                      XRA	A                        ;Clear the accumulator
 2426  102C  77                      MOV	M,A                      ;Set the MSW of FPACC to zero
 2427  102D  2D                      DCR	L                        ;Decrement the pointer
 2428  102E  77                      MOV	M,A                      ;Set the next significant word of FPACC to zero
 2429  102F  2D                      DCR	L                        ;Decrement the pointer
 2430  1030  77                      MOV	M,A                      ;Set the LSW of FPACC to zero
 2431  1031  2D                      DCR	L                        ;Decrement the pointer
 2432  1032  77                      MOV	M,A                      ;Set the auxiliary FPACC byte to zero
 2433  1033  C9                      RET                          ;Exit to calling routine
 2434                     
 2435                                                       ;The next instruction is a special entry point to
 2436                                                       ;the FPNORM subroutine that is used when a number is
 2437                                                       ;converted from fixed to floating point. The FPNORM
 2438                                                       ;label is the entry point when a number already in float-
 2439                                                       ;ing point fonnat is to be normalized.
 2440                     
 2441  1034  06 17        FPFLT:	MVI	B,017H                       ;For fixed to float set CPU register B to 23 decimal
 2442  1036  78           FPNORM:	MOV	A,B                         ;Get CPU register B into ACC to check for special case
 2443  1037  26 01                   MVI	H,HIGH OLDPG1            ;** Set H to page of FPACC
 2444  1039  2E 57                   MVI	L,OFS_FPACC_EXP                   ;Set L to FPACC Exponent byte
 2445  103B  A7                      ANA	A                        ;Set CPU flags to test what was in CPU register B
 2446  103C  CA 40 10                JZ	NOEXC0                    ;If B was zero then do standard normalization
 2447  103F  70                      MOV	M,B                      ;Else set Exponent of FPACC to 23 decimal
 2448  1040  2D           NOEXC0:	DCR	L                           ;Change pointer to MSW of FPACC
 2449  1041  7E                      MOV	A,M                      ;Fetch MSW of FPACC into accumulator
 2450  1042  2E 40                   MVI	L,OFS_SIGN_IND1                   ;Change pointer to SIGN indicator storage location
 2451  1044  77                      MOV	M,A                      ;Place the MSW of FPACC there for future reference
 2452  1045  A7                      ANA	A                        ;Set CPU flags to test MSW of FPACC
 2453  1046  F2 50 10                JP	ACZERT                    ;If sign bit not set then jump ahead to do next test
 2454  1049  06 04                   MVI	B,004H                   ;If sign bit set, number in FPACC is negative. Set up
 2455  104B  2E 53                   MVI	L,OFS_SYMBOL_BUF+3                   ;For two's complement operation
 2456  104D  CD 68 12                CALL	COMPLM                  ;And negate the value in the FPACC to make it positive
 2457  1050  2E 56        ACZERT:	MVI	L,OFS_FPACC_MSW                      ;Reset pointer to MSW of FPACC
 2458  1052  06 04                   MVI	B,004H                   ;Set precision counter to number of bytes in FPACC
 2459  1054  7E           LOOK0:	MOV	A,M                          ;Plus one. Fetch a byte of the FPACC.
 2460  1055  A7                      ANA	A                        ;Set CPU flags
 2461  1056  C2 63 10                JNZ	ACNONZ                   ;If find anything then FPACC is not zero
 2462  1059  2D                      DCR	L                        ;Else decrement pointer to NSW of FPACC
 2463  105A  05                      DCR	B                        ;Decrement precision counter
 2464  105B  C2 54 10                JNZ	LOOK0                    ;Continue checking to see if FPACC contains anything
 2465  105E  2E 57                   MVI	L,OFS_FPACC_EXP                   ;Until precision counter is zero. If reach here then
 2466  1060  AF                      XRA	A                        ;Reset pointer to FPACC Exponent. Clear the ACC and
 2467  1061  77                      MOV	M,A                      ;Clear out the FPACC Exponent. Value of FPACC is zip!
 2468  1062  C9                      RET                          ;Exit to calling routine
 2469  1063  2E 53        ACNONZ:	MVI	L,OFS_SYMBOL_BUF+3                      ;If FPACC has any value set pointer to LSW minus one
 2470  1065  06 04                   MVI	B,004H                   ;Set precision counter to number of bytes in FPACC
 2471  1067  CD 7F 12                CALL	ROTATL                  ;Plus one for special cases. Rotate the contents of the
 2472  106A  7E                      MOV	A,M                      ;FPACC to the LEFT. Pointer will be set to MSW after
 2473  106B  A7                      ANA	A                        ;Rotate ops. Fetch MSW and see if have anything in
 2474  106C  FA 76 10                JM	ACCSET                    ;Most significant bit position. If so, have rotated enough
 2475  106F  2C                      INR	L                        ;If not, advance pointer to FPACC Exponent. Fetch
 2476  1070  46                      MOV	B,M                      ;The value of the Exponent and decrement it by one
 2477  1071  05                      DCR	B                        ;To compensate for the rotate left of the mantissa
 2478  1072  70                      MOV	M,B                      ;Restore the new value of the Exponent
 2479  1073  C3 63 10                JMP	ACNONZ                   ;Continue rotating ops to normalize the FPACC
 2480  1076  2E 56        ACCSET:	MVI	L,OFS_FPACC_MSW                      ;Set pntr to FPACC MSW. Now must provide room for
 2481  1078  06 03                   MVI	B,003H                   ;Sign bit in nonnalized FPACC. Set precision counter.
 2482  107A  CD 89 12                CALL	ROTATR                  ;Rotate the FPACC once to the right now.
 2483  107D  2E 40        RESIGN:	MVI	L,OFS_SIGN_IND1                      ;Set the pointer to SIGN indicator storage location
 2484  107F  7E                      MOV	A,M                      ;Fetch the original sign of the FPACC
 2485  1080  A7                      ANA	A                        ;Set CPU flags
 2486  1081  F0                      RP                           ;If original sign of FPACC was positive, can exit now.
 2487                     
 2488  1082  2E 54        FPCOMP:	MVI	L,OFS_FPACC                      ; However, if original sign was negative, must now restore
 2489  1084  06 03                   MVI	B,003H                   ;The FPACC to negative by performing two's comple-
 2490  1086  C3 68 12                JMP	COMPLM                   ;Ment on FPACC. Return to caring rtn via COMPLM.
 2491                     
 2492                                                       ;Floating point ADDITION. Adds contents of FPACC to
 2493                                                       ;FPOP and leaves result in FPACC. Routine first checks
 2494                                                       ;to see if either register contains zero. If so addition
 2495                                                       ;result is already present!
 2496                     
 2497  1089  2E 56        FPADD:	MVI	L,OFS_FPACC_MSW                       ;Set L to point to MSW of FPACC
 2498  108B  26 01                   MVI	H,HIGH OLDPG1            ;** Do same for register H
 2499  108D  7E                      MOV	A,M                      ;Fetch MSW of FPACC to accumulator
 2500  108E  A7                      ANA	A                        ;Set CPU flags after loading op
 2501  108F  C2 9D 10                JNZ	NONZAC                   ;If accumulator non-zero then FPACC has some value
 2502  1092  2E 54        MOVOP:	MVI	L,OFS_FPACC                       ;But, if accumulator was zero then normalized FPACC
 2503  1094  54                      MOV	D,H                      ;Must also be zero. Thus answer to addition is simply the
 2504  1095  5D                      MOV	E,L                      ;Value in FPOP. Set up pointers to transfer contents of
 2505  1096  2E 5C                   MVI	L,OFS_FPOP                   ;FPOP to FPACC by pointing to the LSW of both
 2506  1098  06 04                   MVI	B,004H                   ;Registers and perform the transfer. Then exit to calling
 2507  109A  C3 0B 11                JMP	MOVEIT                   ;Routine with answer in FPACC via MOVEIT.
 2508  109D  2E 5E        NONZAC:	MVI	L,OFS_FPOP_MSW                      ;If FPACC was non-zero then check to see if FPOP has
 2509  109F  7E                      MOV	A,M                      ;Some value by obtaining MSW of FPOP
 2510  10A0  A7                      ANA	A                        ;Set CPU flags after loading op. If MSW zero then
 2511  10A1  C8                      RZ                           ;Normalized FPOP must be zero. Answer is in FPACC!
 2512                     
 2513                                                       ;If neither FPACC or FPOP was zero then must perform
 2514                                                       ;addition operation. Must first check to see if two num-
 2515                                                       ;bers are within significant mnge. If not, largest number
 2516                                                       ;is answer. If numbers within range, then must align ex-
 2517                                                       ;ponents before perforrning the addition of the man-
 2518                                                       ;tissa.
 2519                     
 2520  10A2  2E 57        CKEQEX:	MVI	L,OFS_FPACC_EXP                      ;Set pointer to FPACC Exponent storage location.
 2521  10A4  7E                      MOV	A,M                      ;Fetch the Exponent value to the accumulator.
 2522  10A5  2E 5F                   MVI	L,OFS_FPOP_EXP                   ;Change the pointer to the FPOP Exponent
 2523  10A7  BE                      CMP	M                        ;Compare the values of the exponents. If they are the
 2524  10A8  CA E1 10                JZ	SHACOP                    ;Same then can immediately proceed to add operations.
 2525  10AB  47                      MOV	B,A                      ;If not the same, store FPACC Exponent size in regis B
 2526  10AC  7E                      MOV	A,M                      ;Fetch the FPOP Exponent size into the ACC
 2527  10AD  98                      SBB	B                        ;Subtract the FPACC Exponent from the FPOP Exp.
 2528  10AE  F2 B4 10                JP	SKPNEG                    ;If result is positive jump over the next few instructions
 2529  10B1  47                      MOV	B,A                      ;If result was negative, store the result in B
 2530  10B2  AF                      XRA	A                        ;Clear the accumulator
 2531  10B3  98                      SBB	B                        ;Subtract register B to negate the original value
 2532  10B4  FE 18        SKPNEG:	CPI	018H                        ;See if difference is less than 24 decimal.
 2533  10B6  FA C3 10                JM	LINEUP                    ;If so, can align exponents. Go do it.
 2534  10B9  7E                      MOV	A,M                      ;If not, find out which number is largest. Fetch FPOP
 2535  10BA  2E 57                   MVI	L,OFS_FPACC_EXP                   ;Exponent into ACC. Change pointer to FPACC Exp.
 2536  10BC  96                      SUB	M                        ;Subtract FPACC from FPOP. If result is negative then
 2537  10BD  F8                      RM                           ;was larger. Return with answer in FPACC.
 2538  10BE  2E 54                   MVI	L,OFS_FPACC                   ;If result was positive, larger value in FPOP. Set pointers
 2539  10C0  C3 92 10                JMP	MOVOP                    ;To transfer FPOP into FPACC and then exit to caller.
 2540  10C3  7E           LINEUP:	MOV	A,M                         ;Fetch FPOP Exponent into accumulator.
 2541  10C4  2E 57                   MVI	L,OFS_FPACC_EXP                   ;Change pointer to FPACC Exponent.
 2542  10C6  96                      SUB	M                        ;Subtract FPACC Exponent from FPOP Exponent. If
 2543  10C7  FA D7 10                JM	SHIFT0                    ;Result is negative FPACC is larger. Go shift FPOP.
 2544  10CA  4F                      MOV	C,A                      ;If result positive FPOP larger, must shift FPACC. Store
 2545  10CB  2E 57        MORACC:	MVI	L,OFS_FPACC_EXP                      ;Difference count in C. Reset pointer to FPACC Exp
 2546  10CD  CD FC 10                CALL	SHLOOP                  ;Call the SHift LOOP to rotate FPACC mantissa RIGHT
 2547  10D0  0D                      DCR	C                        ;And INCREMENT Exponent. Decr difference counter
 2548  10D1  C2 CB 10                JNZ	MORACC                   ;Continue rotate operations until diff counter is zero
 2549  10D4  C3 E1 10                JMP	SHACOP                   ;Go do final alignment and perform addition process
 2550  10D7  4F           SHIFT0:	MOV	C,A                         ;Routine to shift FPOP. Set difference count into reg. C
 2551  10D8  2E 5F        MOROP:	MVI	L,OFS_FPOP_EXP                       ;Set pointer to FPOP Exponent.
 2552  10DA  CD FC 10                CALL	SHLOOP                  ;Call the SHift LOOP to rotate FPOP mantissa RIGHT
 2553  10DD  0C                      INR	C                        ;And INCREMENT Exponent. Then incr difference cntr
 2554  10DE  C2 D8 10                JNZ	MOROP                    ;Continue rotate opemtions until diff counter is zero
 2555                     ;;; The below two instructions are changed by PATCH NR.1
 2556                     ;;;SHACOP:    LLI 123                ;Set pointer to FPACC LSW minus one to provide extra
 2557                     ;;;           LMI 000                ;Byte for addition ops. Clear that location to zero.
 2558  10E1  CD 00 18     SHACOP:	CALL	PATCH1                     ; patch 1 inserts a few lines at 30-000
 2559  10E4  7F           	   MOV	A,A
 2560                     	
 2561                     ;;;           LLI 133
 2562                     ;;;           LMI 000                ;THIS IS PATCH #1
 2563  10E5  2E 57                   MVI	L,OFS_FPACC_EXP                   ;Change pointer to FPACC Exponent
 2564  10E7  CD FC 10                CALL	SHLOOP                  ;Rotate FPACC mantissa RIGHT & Increment Exponent
 2565  10EA  2E 5F                   MVI	L,OFS_FPOP_EXP                   ;Change pointer to FPOP Exponent
 2566  10EC  CD FC 10                CALL	SHLOOP                  ;Rotate FPOP mantissa RIGHT & Increment Exponent
 2567  10EF  54                      MOV	D,H                      ;Rotate ops provide room for overflow. Now set up
 2568  10F0  1E 53                   MVI	E,OFS_FPACC_LSW_M1                   ;Pointers to LSW minus one for both FPACC & FPOP
 2569  10F2  06 04                   MVI	B,004H                   ;(FPOP already set after SHLOOP). Set precision counter
 2570  10F4  CD 57 12                CALL	ADDER                   ;Call quad precision ADDITION subroutine.
 2571  10F7  06 00                   MVI	B,000H                   ;Set CPU register B to indicate standard normalization
 2572  10F9  C3 36 10                JMP	FPNORM                   ;Go normalize the result and exit to caller.
 2573  10FC  46           SHLOOP:	MOV	B,M                         ;Shifting loop. First fetch Exponent currently being
 2574  10FD  04                      INR	B                        ;Pointed to and Increment the value by one.
 2575  10FE  70                      MOV	M,B                      ;Return the updated Exponent value to memory.
 2576  10FF  2D                      DCR	L                        ;Decrement the pointer to mantissa portion MSW
 2577  1100  06 04                   MVI	B,004H                   ;Set precision counter
 2578  1102  7E           FSHIFT:	MOV	A,M                         ;Fetch MSW of mantissa
 2579  1103  A7                      ANA	A                        ;Set CPU flags after load ops
 2580  1104  F2 89 12                JP	ROTATR                    ;If MSB not a one can do normal rotate ops
 2581  1107  17           BRING1:	RAL                             ;If MSB is a one need to set up carrv bit for the negative
 2582  1108  C3 8A 12                JMP	ROTR                     ;Number case. Then make special entry to ROTATR sub
 2583                     
 2584                                                       ;The following subroutine moves the contents of a string
 2585                                                       ;of memory locations from the address pointed to by
 2586                                                       ;CPU registers H & L to the address specified by the con-
 2587                                                       ;tents of registers D & E when the routine is entered. The
 2588                                                       ;process continues until the counter in register B is zero.
 2589                     
 2590  110B  7E           MOVEIT:	MOV	A,M                         ;Fetch a word from memory string A
 2591  110C  2C                      INR	L                        ;Advance A string pointer
 2592  110D  CD EE 12                CALL	SWITCH                  ;Switch pointer to string B
 2593  1110  77                      MOV	M,A                      ;Put word from string A into string B
 2594  1111  2C                      INR	L                        ;Advance B string pointer
 2595  1112  CD EE 12                CALL	SWITCH                  ;Switch pointer back to string A
 2596  1115  05                      DCR	B                        ;Decrement loop counter
 2597  1116  C8                      RZ                           ;Return to calling routine when counter reaches zero
 2598  1117  C3 0B 11                JMP	MOVEIT                   ;Else continue transfer operations
 2599                     
 2600                                                       ;The following subroutine SUBTRACTS the
 2601                                                       ;contents of the FLOATING POINT ACCUMULATOR from the
 2602                                                       ;contents of the FLOATING POINT OPERAND and
 2603                                                       ;leaves the result in the FPACC. The routine merely
 2604                                                       ;negates the value in the FPACC and then goes to the
 2605                                                       ;FPADD subroutine just presented.
 2606                     
 2607  111A  2E 54        FPSUB:	MVI	L,OFS_FPACC                       ;Set L to address of LSW of FPACC
 2608  111C  26 01                   MVI	H,HIGH OLDPG1            ;** Set H to page of FPACC
 2609  111E  06 03                   MVI	B,003H                   ;Set precision counter
 2610  1120  CD 68 12                CALL	COMPLM                  ;Two's complement the value in the FPACC
 2611  1123  C3 89 10                JMP	FPADD                    ;Now go add the negated value to perform subtraction!
 2612                     
 2613                                                       ;The first part of the FLOATING POINT MULTIPLI-
 2614                                                       ;CATION subroutine calls a subroutine to check the
 2615                                                       ;original signs of the numbers that are to be multi-
 2616                                                       ;plied and perform working register clearing functions.
 2617                                                       ;Next the exponents of the numbers to be multiplied
 2618                                                       ;are added together.
 2619                     
 2620  1126  CD 76 11     FPMULT:	CALL	CKSIGN                     ;Call routine to set up registers & ck signs of numbers
 2621  1129  2E 5F        ADDEXP:	MVI	L,OFS_FPOP_EXP                      ;Set pointer to FPOP Exponent
 2622  112B  7E                      MOV	A,M                      ;Fetch FPOP Exponent into the accumulator
 2623  112C  2E 57                   MVI	L,OFS_FPACC_EXP                   ;Change pointer to FPACC Exponent
 2624  112E  86                      ADD	M                        ;Add FPACC Exponent to FPOP Exponent
 2625  112F  C6 01                   ADI	001H                     ;Add one more to total for algorithm compensation
 2626  1131  77                      MOV	M,A                      ;Store result in FPACC Exponent location
 2627  1132  2E 42        SETMCT:	MVI	L,OFS_BITS_COUNTER                      ;Change pointer to bit counter storage location
 2628  1134  36 17                   MVI	M,017H                   ;Initialize bit counter to 23 decimal
 2629                     
 2630                                                       ;Next portion of the FPMULT routine is the iinplernen-
 2631                                                       ;tation of the algorithm illustrated in the flow chart
 2632                                                       ;above. This portion multiplies the values of the two
 2633                                                       ;mantissas. The final value is rounded off to leave the
 2634                                                       ;23 most significant bits as the answer that is stored
 2635                                                       ;back in the FPACC.
 2636                     
 2637  1136  2E 56        MULTIP:	MVI	L,OFS_FPACC_MSW                      ;Set pointer to MSW of FPACC mantissa
 2638  1138  06 03                   MVI	B,003H                   ;Set precision counter
 2639  113A  CD 89 12                CALL	ROTATR                  ;Rotate FPACC (multiplier) RIGHT into carry bit
 2640  113D  DC B8 11                CC	ADOPPP                    ;If carry is a one, add multiplicand to partial-product
 2641  1140  2E 66                   MVI	L,OFS_FP_WORK_66                   ;Set pointer to partial-product most significant byte
 2642  1142  06 06                   MVI	B,006H                   ;Set precision counter (p-p register is double length)
 2643  1144  CD 89 12                CALL	ROTATR                  ;Shift partial-product RIGHT
 2644  1147  2E 42                   MVI	L,OFS_BITS_COUNTER                   ;Set pointer to bit counter storage location
 2645  1149  4E                      MOV	C,M                      ;Fetch current value of bit counter
 2646  114A  0D                      DCR	C                        ;Decrement the value of the bit counter
 2647  114B  71                      MOV	M,C                      ;Restore the updated bit counter to its storage location
 2648  114C  C2 36 11                JNZ	MULTIP                   ;If have not multiplied for 23 (deciinal) bits, keep going
 2649  114F  2E 66                   MVI	L,OFS_FP_WORK_66                   ;If have done 23 (decimal) bits, set pntr to p-p MSW
 2650  1151  06 06                   MVI	B,006H                   ;Set precision counter (for double length)
 2651  1153  CD 89 12                CALL	ROTATR                  ;Shift partial-product once more to the RIGHT
 2652  1156  2E 63                   MVI	L,OFS_FP_WORK_63                   ;Set pointer to access 24'th bit in partial-product
 2653  1158  7E                      MOV	A,M                      ;Fetch the byte containing the 24'th bit
 2654  1159  17                      RAL                          ;Position the 24'th bit to be MSB in the accumulator
 2655  115A  A7                      ANA	A                        ;Set the CPU flags after to rotate operation and test to
 2656  115B  FC C2 11                CM	MROUND                    ;See if 24'th bit of p-p is a ONE. If so, must round-off
 2657  115E  2E 53                   MVI	L,OFS_SYMBOL_BUF+3                   ;Now set up pointers
 2658  1160  5D                      MOV	E,L                      ;To perform transfer
 2659  1161  54                      MOV	D,H                      ;Of the multiplication results
 2660  1162  2E 63                   MVI	L,OFS_FP_WORK_63                   ;From the partial-product location
 2661  1164  06 04                   MVI	B,004H                   ;To the FPACC
 2662                     
 2663                     	
 2664  1166  CD 0B 11     EXMLDV:	CALL	MOVEIT                     ;Perform the transfer from p-p to FPACC
 2665  1169  06 00                   MVI	B,000H                   ;Set up CPU register B to indicate regular normalization
 2666  116B  CD 36 10                CALL	FPNORM                  ;Normalize the result of multiplication
 2667  116E  2E 41                   MVI	L,OFS_SIGN_IND1+1                   ;Now set the pointer to the original SIGNS indicator
 2668  1170  7E                      MOV	A,M                      ;Fetch the indicator
 2669  1171  A7                      ANA	A                        ;Exercise the CPU flags
 2670  1172  C0                      RNZ                          ;If indicator is non-zero, answer is positive, can exit her
 2671  1173  C3 82 10                JMP	FPCOMP                   ;If not, answer must be negated, exit via 2's complement.
 2672                     
 2673                                                       ;The following portions of the FPMULT
 2674                                                       ;routine set up working locations in memory by clearing
 2675                                                       ;locations for an expanded FPOP area and the partial-produc
 2676                                                       ;area. Next, the signs of the two numbers to be multiplied
 2677                                                       ;are examined. Negative numbers are negated
 2678                                                       ;in preparation for the multiplication
 2679                                                       ;algorithm. A SIGNS indicator register is set up during
 2680                                                       ;this process to indicate whether the final result of the
 2681                                                       ;multiplication should be positive or negative. (Negative
 2682                                                       ;if original signs of the two numbers to be multiplied are
 2683                                                       ;different.)
 2684                     
 2685  1176  2E 60        CKSIGN:	MVI	L,OFS_FP_WORK                      ;Set pointer to start of partial-product working area
 2686  1178  26 01                   MVI	H,HIGH OLDPG1            ;** Set H to proper page
 2687  117A  06 08                   MVI	B,008H                   ;Set up a loop counter in CPU register B
 2688  117C  AF                      XRA	A                        ;Clear the accumulator
 2689                     
 2690  117D  77           CLRNEX:	MOV	M,A                         ;Now clear out locations for the partial-product
 2691  117E  2C                      INR	L                        ;Working registers
 2692  117F  05                      DCR	B                        ;Until the loop counter
 2693  1180  C2 7D 11                JNZ	CLRNEX                   ;Is zero
 2694  1183  06 04        CLROPL:	MVI	B,004H                      ;Set a loop counter
 2695  1185  2E 58                   MVI	L,OFS_FPOP_EXT                   ;Set up pointer
 2696  1187  77           CLRNX1:	MOV	M,A                         ;Clear out some extra registers so that the
 2697  1188  2C                      INR	L                        ;FPOP may be extended in length
 2698  1189  05                      DCR	B                        ;Perform clearing ops until loop counter
 2699  118A  C2 87 11                JNZ	CLRNX1                   ;Is zero
 2700  118D  2E 41                   MVI	L,OFS_SIGN_IND1+1                   ;Set pointer to M/D SIGNS indicator storage location
 2701  118F  36 01                   MVI	M,001H                   ;Set initial value of SIGNS indicator to plus one
 2702  1191  2E 56                   MVI	L,OFS_FPACC_MSW                   ;Change pointer to MSW of FPACC
 2703  1193  7E                      MOV	A,M                      ;Fetch MSW of mantissa into accumulator
 2704  1194  A7                      ANA	A                        ;Test flags
 2705  1195  FA A9 11                JM	NEGFPA                    ;If MSB in MSW of FPACC is a one, number is negative
 2706  1198  2E 5E        OPSGNT:	MVI	L,OFS_FPOP_MSW                      ;Set pointer to MSW of FPOP
 2707  119A  7E                      MOV	A,M                      ;Fetch MSW of mantissa into accumulator
 2708  119B  A7                      ANA	A                        ;Test flags
 2709  119C  F0                      RP                           ;Return to caller if number in FPOP is positive
 2710  119D  2E 41                   MVI	L,OFS_SIGN_IND1+1                   ;Else change pointer to M/D SIGNS indicator
 2711  119F  4E                      MOV	C,M                      ;Fetch the value in the SIGNS indicator
 2712  11A0  0D                      DCR	C                        ;Decrement the value by one
 2713  11A1  71                      MOV	M,C                      ;Restore the new value back to storage location
 2714  11A2  2E 5C                   MVI	L,OFS_FPOP                   ;Set pointer to LSW of FPOP
 2715  11A4  06 03                   MVI	B,003H                   ;Set precision counter
 2716  11A6  C3 68 12                JMP	COMPLM                   ;Two's complement value of FPOP & return to caller
 2717  11A9  2E 41        NEGFPA:	MVI	L,OFS_SIGN_IND1+1                      ;Set pointer to M/D SIGNS indicator
 2718  11AB  4E                      MOV	C,M                      ;Fetch the value in the SIGNS indicator
 2719  11AC  0D                      DCR	C                        ;Decrement the value by one
 2720  11AD  71                      MOV	M,C                      ;Restore the new value back to storage location
 2721  11AE  2E 54                   MVI	L,OFS_FPACC                   ;Set pointer to LSW of FPACC
 2722  11B0  06 03                   MVI	B,003H                   ;Set precision counter
 2723  11B2  CD 68 12                CALL	COMPLM                  ;Two's complement value of FPACC
 2724  11B5  C3 98 11                JMP	OPSGNT                   ;Proceed to check sign of FPOP
 2725                     
 2726                                                       ;The following subroutine adds the double length (six regis
 2727                                                       ;multiplicand in FPOP to the partial-product register when
 2728                                                       ;called on by the multiplication algorithm.
 2729                     
 2730  11B8  1E 61        ADOPPP:	MVI	E,OFS_FP_WORK_61                      ;Pointer to LSW of partial-product
 2731  11BA  54                      MOV	D,H                      ;On same page as FPOP
 2732  11BB  2E 59                   MVI	L,OFS_FPOP_EXT+1                   ;LSIV of FPOP which contains extended multiplicand
 2733  11BD  06 06                   MVI	B,006H                   ;Set precision counter (double length working registers)
 2734  11BF  C3 57 12                JMP	ADDER                    ;Add multiplicand to partial-product & return to caller
 2735                     
 2736  11C2  06 03        MROUND:	MVI	B,003H                      ;Set up precision counter
 2737  11C4  3E 40                   MVI	A,040H                   ;Prepare to add one to 24'th bit of partial-product
 2738  11C6  86                      ADD	M                        ;Add one to the 24'th bit of the partial-product
 2739  11C7  77           CROUND:	MOV	M,A                         ;Restore the updated byte to memory
 2740  11C8  2C                      INR	L                        ;Advance the memory pointer to next most significant
 2741  11C9  3E 00                   MVI	A,000H                   ;Byte of partial-product, then clear ACC without
 2742  11CB  8E                      ADC	M                        ;Disturbing carry bit. Now perform add with carry to
 2743  11CC  05                      DCR	B                        ;Propagate any rounding in the partial-product registers.
 2744  11CD  C2 C7 11                JNZ	CROUND                   ;If cotinter is not zero continue propagating any carry
 2745  11D0  77                      MOV	M,A                      ;Restore final byte to memory
 2746  11D1  C9                      RET                          ;Exit to calling routine
 2747                     
 2748  11D2  CD 76 11     FPDIV:	CALL	CKSIGN                      ;Call routine to set up registers & ck signs of numbers
 2749  11D5  2E 56                   MVI	L,OFS_FPACC_MSW                   ;Set pointer to MSW of FPACC (divisor)
 2750  11D7  7E                      MOV	A,M                      ;Fetch MSW of FPACC to accumulator
 2751  11D8  A7                      ANA	A                        ;Exercise CPU flags
 2752  11D9  CA EF 0A                JZ	DVERR                     ;If MSW of FPACC is zero go display 'DZ' error message
 2753  11DC  2E 5F        SUBEXP:	MVI	L,OFS_FPOP_EXP                      ;Set pointer to FPOP (dividend) Exponent
 2754  11DE  7E                      MOV	A,M                      ;Get FPOP Exponent into accumulator
 2755  11DF  2E 57                   MVI	L,OFS_FPACC_EXP                   ;Change pointer to FPACC (divisor) Exponent
 2756  11E1  96                      SUB	M                        ;Subtract divisor exponent from dividend exponent
 2757  11E2  C6 01                   ADI	001H                     ;Add one for algorithm compensation
 2758  11E4  77                      MOV	M,A                      ;Place result in FPACC Exponent
 2759  11E5  2E 42        SETDCT:	MVI	L,OFS_BITS_COUNTER                      ;Set pointer to bit counter storage location
 2760  11E7  36 17                   MVI	M,017H                   ;Initialize bit counter to 23 decimal
 2761                     
 2762                                                       ;Main division algorithm for mantissas
 2763                     
 2764  11E9  CD 41 12     DIVIDE:	CALL	SETSUB                     ;Go subtmct divisor from dividend
 2765  11EC  FA FE 11                JM	NOGO                      ;If result is negative then place a zero bit in quotient
 2766  11EF  1E 5C                   MVI	E,OFS_FPOP                   ;If result zero or positive then move remainder after
 2767  11F1  2E 59                   MVI	L,OFS_FPOP_EXT+1                   ;Subtraction from working area to become new dividend
 2768  11F3  06 03                   MVI	B,003H                   ;Set up moving pointers and initialize precision counter
 2769  11F5  CD 0B 11                CALL	MOVEIT                  ;Perform the transfer
 2770  11F8  3E 01                   MVI	A,001H                   ;Place a one into least significant bit of accumulator
 2771  11FA  1F                      RAR                          ;And rotate it out into the carry bit
 2772  11FB  C3 FF 11                JMP	QUOROT                   ;Proceed to rotate the carry bit into the current quotient
 2773  11FE  AF           NOGO:	XRA	A                             ;When result is negative, put a zero in the carry bit, then
 2774  11FF  2E 64        QUOROT:	MVI	L,OFS_FP_WORK+4                      ;Set up pointer to LSW of quotient register
 2775  1201  06 03                   MVI	B,003H                   ;Set precision counter
 2776  1203  CD 80 12                CALL	ROTL                    ;Rotate carry bit into quotient by using special entry to
 2777  1206  2E 5C                   MVI	L,OFS_FPOP                   ;ROTATL subroutine. Now set up pointer to dividend
 2778  1208  06 03                   MVI	B,003H                   ;LSW and set precision counter
 2779  120A  CD 7F 12                CALL	ROTATL                  ;Rotate the current dividend to the left
 2780  120D  2E 42                   MVI	L,OFS_BITS_COUNTER                   ;Set pointer to bit counter storage location
 2781  120F  4E                      MOV	C,M                      ;Fetch the value of the bit counter
 2782  1210  0D                      DCR	C                        ;Decrement the value by one
 2783  1211  71                      MOV	M,C                      ;Restore the new counter value to storage
 2784  1212  C2 E9 11                JNZ	DIVIDE                   ;If bit counter is not zero, continue division process
 2785  1215  CD 41 12                CALL	SETSUB                  ;After 23 (decimal) bits, do subtraction once more for
 2786  1218  FA 38 12                JM	DVEXIT                    ;Possible rounding. Jump ahead if no rounding required.
 2787  121B  2E 64                   MVI	L,OFS_FP_WORK+4                   ;If rounding required set pointer to LSW of quotient
 2788  121D  7E                      MOV	A,M                      ;Fetch LSW of quotient to accumulator
 2789  121E  C6 01                   ADI	001H                     ;Add one to 23rd bit of quotient
 2790  1220  77                      MOV	M,A                      ;Restore updated LSW of quotient
 2791  1221  3E 00                   MVI	A,000H                   ;Clear accumulator without disturbing carry bit
 2792  1223  2C                      INR	L                        ;Advance pointer to next significant byte of quotient
 2793  1224  8E                      ADC	M                        ;Propagate any carry as part of rounding process
 2794  1225  77                      MOV	M,A                      ;Restore the updated byte of quotient
 2795  1226  3E 00                   MVI	A,000H                   ;Clear ACC again without disturbing carry bit
 2796  1228  2C                      INR	L                        ;Advance pointer to MSW of quotient
 2797  1229  8E                      ADC	M                        ;Propagate any carry to finish rounding process
 2798  122A  77                      MOV	M,A                      ;Restore the updated byte of quotient
 2799  122B  F2 38 12                JP	DVEXIT                    ;If most significant bit of quotient is zero, go finish up
 2800  122E  06 03                   MVI	B,003H                   ;If not, set precision counter
 2801  1230  CD 89 12                CALL	ROTATR                  ;And rotate quotient to the right to clear the sign bit
 2802  1233  2E 57                   MVI	L,OFS_FPACC_EXP                   ;Set pointer to FPACC Exponent
 2803  1235  46                      MOV	B,M                      ;Fetch FPACC exponent
 2804  1236  04                      INR	B                        ;Increment the value to compensate for the rotate right
 2805  1237  70                      MOV	M,B                      ;Restore the updated exponent value
 2806  1238  2E 63        DVEXIT:	MVI	L,OFS_FP_WORK_63                      ;Set up pointers
 2807  123A  1E 53                   MVI	E,OFS_FPACC_LSW_M1                   ;To transfer the quotient into the FPACC
 2808  123C  06 04                   MVI	B,004H                   ;Set precision counter
 2809                                                       ;THIS IS A CORRECTION FOUND IN THE NOTES
 2810  123E  C3 66 11                JMP	EXMLDV                   ;And exit through FPMULT routine at EXMLDV
 2811                     
 2812                                                       ;Subroutine to subtract divisor from dividend. Used by
 2813                                                       ;main DIVIDE subroutine.
 2814                     
 2815  1241  1E 59        SETSUB:	MVI	E,OFS_FPOP_EXT_59                      ;Set pointer to LSW of working area
 2816  1243  54                      MOV	D,H                      ;On same page as FPACC
 2817  1244  2E 54                   MVI	L,OFS_FPACC                   ;Set pointer to LSW of FPACC (divisor)
 2818  1246  06 03                   MVI	B,003H                   ;Set precision counter
 2819  1248  CD 0B 11                CALL	MOVEIT                  ;Perform transfer
 2820  124B  1E 59                   MVI	E,OFS_FPOP_EXT_59                   ;Reset pointer to LSW of working area (now divisor)
 2821  124D  2E 5C                   MVI	L,OFS_FPOP                   ;Reset pointer to LSW of FPOP (dividend)
 2822  124F  06 03                   MVI	B,003H                   ;Set precision counter
 2823  1251  CD 93 12                CALL	SUBBER                  ;Subtract divisor from dividend
 2824  1254  7E                      MOV	A,M                      ;Get MSW of the result of the subtraction operations
 2825  1255  A7                      ANA	A                        ;Exercise CPU flags
 2826  1256  C9                      RET                          ;Return to caller with status
 2827  1257  A7           ADDER:	ANA	A                            ;Initialize the carry bit to zero upon entry
 2828  1258  7E           ADDMOR:	MOV	A,M                         ;Fetch byte from register group A
 2829  1259  CD EE 12                CALL	SWITCH                  ;Switch memory pointer to register group B
 2830  125C  8E                      ADC	M                        ;Add byte from A to byte from B with carry
 2831  125D  77                      MOV	M,A                      ;Leave result in register group B
 2832  125E  05                      DCR	B                        ;Decrement number of bytes (precision) counter
 2833  125F  C8                      RZ                           ;Return to caller when all bytes in group processed
 2834  1260  2C                      INR	L                        ;Else advance pointer for register group B
 2835  1261  CD EE 12                CALL	SWITCH                  ;Switch memory pointer back to register group A
 2836  1264  2C                      INR	L                        ;Advance the pointer for register group A
 2837  1265  C3 58 12                JMP	ADDMOR                   ;Continue the multi-byte addition operation
 2838                     
 2839                                                       ;N'th precision two's complement (negate)
 2840                                                       ;subroutine. Performs a two's complement on the multi-byte
 2841                                                       ;registers tarting at the address pointed
 2842                                                       ; to by H & L (least significant byte) upon entry.
 2843                     
 2844  1268  7E           COMPLM:	MOV	A,M                         ;Fetch the least significant byte of the number to ACC
 2845  1269  EE FF                   XRI	0FFH                     ;Exclusive OR to complement the byte
 2846  126B  C6 01                   ADI	001H                     ;Add one to form two's complement of byte
 2847  126D  77           MORCOM:	MOV	M,A                         ;Restore the negated byte to memory
 2848  126E  1F                      RAR                          ;Save the carry bit
 2849  126F  57                      MOV	D,A                      ;In CPU register D
 2850  1270  05                      DCR	B                        ;Decrement number of bytes (precision) counter
 2851  1271  C8                      RZ                           ;Return to caller when all bytes in number processed
 2852  1272  2C                      INR	L                        ;Else advance the pointer
 2853  1273  7E                      MOV	A,M                      ;Fetch the next byte of the number to ACC
 2854  1274  EE FF                   XRI	0FFH                     ;Exclusive OR to complement the byte
 2855  1276  5F                      MOV	E,A                      ;Save complemented value in register E temporarily
 2856  1277  7A                      MOV	A,D                      ;Restore previous carry status to ACC
 2857  1278  17                      RAL                          ;And rotate it out to the carry bit
 2858  1279  3E 00                   MVI	A,000H                   ;Clear ACC without disturbing carry status
 2859  127B  8B                      ADC	E                        ;Add in any carry to complemented value
 2860  127C  C3 6D 12                JMP	MORCOM                   ;Continue the two's complement procedure as req'd
 2861                     
 2862                                                       ;N'th precision rotate left subroutine. Rotates a multi-
 2863                                                       ;byte number left starting at the address initially
 2864                                                       ;specified by the contents of CPU registers H & L upon
 2865                                                       ;subroutine entry (LSW). First entry point will clear
 2866                                                       ;the carry bit before beginning rotate operations. Second
 2867                                                       ;entry point does not clear the carry bit.
 2868                     
 2869  127F  A7           ROTATL:	ANA	A                           ;Clear the carry bit at this entry point
 2870  1280  7E           ROTL:	MOV	A,M                           ;Fetch a byte from memory
 2871  1281  17                      RAL                          ;Rotate it left (bring carry into LSB, push MSB to carry)
 2872  1282  77                      MOV	M,A                      ;Restore rotated word to memory
 2873  1283  05                      DCR	B                        ;Decrement precision counter
 2874  1284  C8                      RZ                           ;Exit to caller when finished
 2875  1285  2C                      INR	L                        ;Else advance pointer to next byte
 2876  1286  C3 80 12                JMP	ROTL                     ;Continue rotate left operations
 2877                     
 2878                     
 2879                                                       ;N'th precision rotate
 2880                                                       ;right subroutine. Opposite of
 2881                                                       ;above subroutine.
 2882                     
 2883  1289  A7           ROTATR:	ANA	A                           ;Clear the carry bit at this entry point
 2884  128A  7E           ROTR:	MOV	A,M                           ;Fetch a byte from memory
 2885  128B  1F                      RAR                          ;Rotate it right (carry into MSB, LSB to carry)
 2886  128C  77                      MOV	M,A                      ;Restore rotated word to memory
 2887  128D  05                      DCR	B                        ;Decrement precision counter
 2888  128E  C8                      RZ                           ;Exit to caller when finished
 2889  128F  2D                      DCR	L                        ;Else decrement pointer to next byte
 2890  1290  C3 8A 12                JMP	ROTR                     ;Continue rotate right operations
 2891                     
 2892                                                       ;N'th precision subtraction subroutine.
 2893                                                       ;Number starting at location pointed to by D & E (least
 2894                                                       ;significant byte) is subtracted from number starting at
 2895                                                       ;address specified by contents of H & L.
 2896                     
 2897  1293  A7           SUBBER:	ANA	A                           ;Initialize the carry bit to zero upon entry
 2898  1294  7E           SUBTRA:	MOV	A,M                         ;Fetch byte from register group A
 2899  1295  CD EE 12                CALL	SWITCH                  ;Switch memory pointer to register group B
 2900  1298  9E                      SBB	M                        ;Subtract byte from group B ftom that in group A
 2901  1299  77                      MOV	M,A                      ;Leave result in register group B
 2902  129A  05                      DCR	B                        ;Decrement number of bytes (precision) counter
 2903  129B  C8                      RZ                           ;Return to caller when all bytes in group processed
 2904  129C  2C                      INR	L                        ;Else advance pointer for register group B
 2905  129D  CD EE 12                CALL	SWITCH                  ;Switch memory pointer back to register group A
 2906  12A0  2C                      INR	L                        ;Advance the pointer for register group A
 2907  12A1  C3 94 12                JMP	SUBTRA                   ;Continue the multi-byte subtraction operation
 2908                     
 2909                                                       ;The next subroutine will transfer the four byte
 2910                                                       ;register string (generally a number in floating point
 2911                                                       ;format) from the starting address pointed to by CPU
 2912                                                       ;registers H & L when the subroutine is entered to
 2913                                                       ;the FPACC (floating point accumulator registers).
 2914                     
 2915  12A4  16 01        FLOAD:	MVI	D,HIGH OLDPG1                ;** Set page address of FPACC
 2916  12A6  1E 54                   MVI	E,OFS_FPACC                   ;Set address of least signficant byte of FPACC
 2917  12A8  06 04                   MVI	B,004H                   ;Set precision counter to four bytes (mantissa bytes
 2918  12AA  C3 0B 11                JMP	MOVEIT                   ;Plus Exponent) and exit via the transfer routine
 2919                     
 2920                                                       ;The next several subroutines are used to perform
 2921                                                       ;floating pojnt register loading and transfer operations.
 2922                     
 2923  12AD  5D           FSTORE:	MOV	E,L                         ;Transfer contents of register L to E
 2924  12AE  54                      MOV	D,H                      ;Transfer contents of register H to D
 2925  12AF  2E 54                   MVI	L,OFS_FPACC                   ;Set L to least significant byte of FPACC mantissa
 2926  12B1  26 01                   MVI	H,HIGH OLDPG1            ;** Set page to FPACC storage area
 2927  12B3  C3 BA 12                JMP	SETIT                    ;Go transfer FPACC contents to area pointed to by D&E
 2928  12B6  16 01        OPLOAD:	MVI	D,HIGH OLDPG1               ;** Set page to FPOP storage area
 2929  12B8  1E 5C                   MVI	E,OFS_FPOP                   ;Set pointer to least significant byte of FPOP
 2930  12BA  06 04        SETIT:	MVI	B,004H                       ;Set precision counter. Transfer from H & L area to
 2931  12BC  C3 0B 11                JMP	MOVEIT                   ;Locations pointed to by D & E
 2932                     
 2933                                                       ;The next subroutine perforins a double transfer opera-
 2934                                                       ;tion. It first transfers the contents of the FPACC into
 2935                                                       ;the FPOP. It then transfers new data (as pointed to by
 2936                                                       ;H & L upon entry to the subroutine) into the FPACC.
 2937                     
 2938  12BF  CD CF 12     FACXOP:	CALL	SAVEHL                     ;Save contents of H & L upon entry to subroutine
 2939  12C2  2E 54                   MVI	L,OFS_FPACC                   ;Set pointer to FPACC LSW
 2940  12C4  26 01                   MVI	H,HIGH OLDPG1            ;** Set pointer to page of FPACC
 2941  12C6  CD B6 12                CALL	OPLOAD                  ;Transfer FPACC to FPOP
 2942  12C9  CD DF 12                CALL	RESTHL                  ;Recover original subroutine entry values for H & L
 2943  12CC  C3 A4 12                JMP	FLOAD                    ;Transfer registers pointed to by H & L into the FPACC
 2944                     
 2945                                                       ;Subroutine to save the contents of CPU registers D, E, H
 2946                                                       ;and L in a temporary storage area in memory.
 2947                     
 2948  12CF  7C           SAVEHL:	MOV	A,H                         ;Transfer value in H to ACC
 2949  12D0  45                      MOV	B,L                      ;And value in L to B
 2950  12D1  2E 80                   MVI	L,OFS_EVAL_CURRENT                   ;Now set L to start of tempomry storage locations
 2951  12D3  26 01                   MVI	H,HIGH OLDPG1            ;** And set H to storage area page
 2952  12D5  77                      MOV	M,A                      ;Save A (entry value of H) in memory
 2953  12D6  2C                      INR	L                        ;Advance pointer
 2954  12D7  70                      MOV	M,B                      ;Save B (entry value of L) in memory
 2955  12D8  2C                      INR	L                        ;Advance pointer
 2956  12D9  72                      MOV	M,D                      ;Save D in memory
 2957  12DA  2C                      INR	L                        ;Advance pointer
 2958  12DB  73                      MOV	M,E                      ;Save E in memory
 2959  12DC  67                      MOV	H,A                      ;Restore entry value of H
 2960  12DD  68                      MOV	L,B                      ;Restore entry value of L
 2961  12DE  C9                      RET                          ;Exit to calling routine
 2962                     
 2963                                                       ;Subroutine to restore the contents of CPU registers D,
 2964                                                       ;E, H and L from temporary storage in memory.
 2965                     
 2966  12DF  2E 80        RESTHL:	MVI	L,OFS_EVAL_CURRENT                      ;Set L to start of temporary storage locations
 2967  12E1  26 01                   MVI	H,HIGH OLDPG1            ;** Set H to storage area page
 2968  12E3  7E                      MOV	A,M                      ;Fetch stored value for li iii ACC
 2969  12E4  2C                      INR	L                        ;Advance pointer
 2970  12E5  46                      MOV	B,M                      ;Fetch stored value for L into B
 2971  12E6  2C                      INR	L                        ;Advance pointer
 2972  12E7  56                      MOV	D,M                      ;Fetch stored value for T.)
 2973  12E8  2C                      INR	L                        ;Advance pointer
 2974  12E9  5E                      MOV	E,M                      ;Fetch stored value for
 2975  12EA  67                      MOV	H,A                      ;Restore  saved value for H
 2976  12EB  68                      MOV	L,B                      ;Restore saved value for L
 2977  12EC  7E                      MOV	A,M                      ;Leave stored value for E in ACC
 2978  12ED  C9                      RET                          ;Exit to calling routine
 2979                     
 2980                                                       ;Subroutine to exchange the contents of H & L with
 2981                                                       ;D & E.
 2982                     
 2983  12EE  4C           SWITCH:	MOV	C,H                         ;Transfer register H to C temporarily
 2984  12EF  62                      MOV	H,D                      ;Place value of D into H
 2985  12F0  51                      MOV	D,C                      ;Now put former H from C into D
 2986  12F1  4D                      MOV	C,L                      ;Transfer register L to C temporarily
 2987  12F2  6B                      MOV	L,E                      ;Place value of E into L
 2988  12F3  59                      MOV	E,C                      ;Now put former L from C into E
 2989  12F4  C9                      RET                          ;Exit to calling routine
 2990  12F5  26 01        GETINP:	MVI	H,HIGH OLDPG1               ;** Set H to page of GETINP character counter
 2991  12F7  2E 90                   MVI	L,OFS_GETINP_CNT                   ;Set L to address of GETINP character counter
 2992  12F9  4E                      MOV	C,M                      ;Load counter value into CPU register C
 2993  12FA  0C                      INR	C                        ;Exercise the counter in order
 2994  12FB  0D                      DCR	C                        ;To set CPU flags. If counter is non-zero, then indexing
 2995  12FC  C2 08 13                JNZ	NOT0                     ;Register (GETINP counter) is all set so jump ahead.
 2996  12FF  6B                      MOV	L,E                      ;But, if counter zero, then starting to process a new
 2997  1300  62                      MOV	H,D                      ;Character string. Transfer char string buffer pointer into
 2998  1301  4E                      MOV	C,M                      ;H & L and fetch the string's character count value (cc)
 2999  1302  0C                      INR	C                        ;Increment the (cc) by one to take account of (cc) byte
 3000  1303  CD 1E 13                CALL	INDEXC                  ;Add contents of regis C to H & L to point to end of the
 3001  1306  36 00                   MVI	M,000H                   ;Character string in buffer and place a zero byte marker
 3002  1308  2E 90        NOT0:	MVI	L,OFS_GETINP_CNT                        ;Set L back to address of GETINP counter which is used
 3003  130A  26 01                   MVI	H,HIGH OLDPG1            ;** As an indexing value. Set H to correct page.
 3004  130C  4E                      MOV	C,M                      ;Fetch the value of GETINP counter into register C
 3005  130D  0C                      INR	C                        ;Increment the value in C
 3006  130E  71                      MOV	M,C                      ;Restore the updated value for future use
 3007  130F  6B                      MOV	L,E                      ;Bring the base address of the character string buffer into
 3008  1310  62                      MOV	H,D                      ;CPU registers H & L
 3009  1311  CD 1E 13                CALL	INDEXC                  ;Add contents of register C to form indexed address of
 3010  1314  7E                      MOV	A,M                      ;Next character to be fetched as input. Fetch the next
 3011  1315  A7                      ANA	A                        ;Character. Exercise the CPU flags.
 3012  1316  26 01                   MVI	H,HIGH OLDPG1            ;** Restore page pointer to floating point working area
 3013  1318  C0                      RNZ                          ;If character is non-zero, not end of string, exit to calle
 3014  1319  2E 90                   MVI	L,OFS_GETINP_CNT                   ;If zero character, must reset GETINP counter for next
 3015  131B  36 00                   MVI	M,000H                   ;String. Reset pointer and clear GETINP counter to zero
 3016  131D  C9                      RET                          ;Then exit to calling routine
 3017                     
 3018                                                       ;Following subroutine causes register C to be used as an
 3019                                                       ;indexing register. Value in C is added to address in H
 3020                                                       ;and L to form new address.
 3021                     
 3022  131E  7D           INDEXC:	MOV	A,L                         ;Place value from register L into accumulator
 3023  131F  81                      ADD	C                        ;Add quantity in register C
 3024  1320  6F                      MOV	L,A                      ;Restore updated value back to L
 3025  1321  D0                      RNC                          ;Exit to caller if no carry from addition
 3026  1322  24                      INR	H                        ;But, if have carry then must increment register H
 3027  1323  C9                      RET                          ;Before returning to calling routine
 3028                     
 3029                                                       ;Main Decimal INPUT subroutine to convert strings of
 3030                                                       ;ASCII characters representing decimal fixed or floating
 3031                                                       ;point numbers to binary floating point numbers.
 3032                     
 3033  1324  5D           DINPUT:	MOV	E,L                         ;Save entry value of register L in E. (Pointer to buffer
 3034  1325  54                      MOV	D,H                      ;Containing ASCII character string.) Do same for H to D.
 3035  1326  26 01                   MVI	H,HIGH OLDPG1            ;** Set H to page of floating point working registers
 3036  1328  2E 68                   MVI	L,OFS_FP_WORK_68                   ;Set L to start of decirnal-to-binary working area
 3037  132A  AF                      XRA	A                        ;Clear the accumulator
 3038  132B  06 08                   MVI	B,008H                   ;Set up a loop counter
 3039  132D  77           CLRNX2:	MOV	M,A                         ;Deposit zero in working area to initialize
 3040  132E  2C                      INR	L                        ;Advance the memory pointer
 3041  132F  05                      DCR	B                        ;Decrement the loop counter
 3042  1330  C2 2D 13                JNZ	CLRNX2                   ;Clear working area until loop counter is zero
 3043  1333  2E 43                   MVI	L,OFS_SIGN_IND2                   ;Set pointer to floating point temporary registers and
 3044  1335  06 04                   MVI	B,004H                   ;Indicators working area. Set up a loop counter.
 3045  1337  77           CLRNX3:	MOV	M,A                         ;Deposit zero in working area to initialize
 3046  1338  2C                      INR	L                        ;Advance the memory pointer
 3047  1339  05                      DCR	B                        ;Decrement the loop counter
 3048  133A  C2 37 13                JNZ	CLRNX3                   ;Clear working area until loop counter is zero
 3049  133D  CD F5 12                CALL	GETINP                  ;Fetch a character from the ASCII chax string buffer
 3050  1340  FE AB                   CPI	0ABH                     ;(Typically the SYMBOL/TOKEN buffer). See if it is
 3051  1342  CA 4D 13                JZ	NINPUT                    ;Code for + sign. Jump ahead if code for + sign.
 3052  1345  FE AD                   CPI	0ADH                     ;See if code for minus (-) sign.
 3053  1347  C2 50 13                JNZ	NOTPLM                   ;Jump ahead if not code for minus sign. If code for
 3054  134A  2E 43                   MVI	L,OFS_SIGN_IND2                   ;Minus sign, set pointer to MINUS flag storage location.
 3055  134C  77                      MOV	M,A                      ;Set the MINUS flag to indicate a minus number
 3056  134D  CD F5 12     NINPUT:	CALL	GETINP                     ;Fetch another character from the ASCII char string
 3057  1350  FE AE        NOTPLM:	CPI	0AEH                        ;See if character represents a period (decimal point) in
 3058  1352  CA 81 13                JZ	PERIOD                    ;Input string. Jump ahead if yes.
 3059  1355  FE C5                   CPI	0C5H                     ;If not period, see if code for E as in Exponent
 3060  1357  CA 91 13                JZ	FNDEXP                    ;Jump ahead if yes.
 3061  135A  FE A0                   CPI	0A0H                     ;Else see if code for space.
 3062  135C  CA 4D 13                JZ	NINPUT                    ;Ignore space character, go fetch another character.
 3063  135F  A7                      ANA	A                        ;If none of the above see if zero byte
 3064  1360  CA C9 13                JZ	ENDINP                    ;Indicating end of input char string. If yes, jumn ahead.
 3065  1363  FE B0                   CPI	0B0H                     ;If not end of string, check to see
 3066  1365  FA FD 0A                JM	NUMERR                    ;If character represents
 3067  1368  FE BA                   CPI	0BAH                     ;A valid decimal number (0 to 9)
 3068  136A  F2 FD 0A                JP	NUMERR                    ;Display error message if not a valid digit at this point!
 3069  136D  2E 6E                   MVI	L,OFS_FP_WORK_6E                   ;For valid digit, set pointer to MSW of temporary
 3070  136F  4F                      MOV	C,A                      ;Decimal to binary holding registers. Save character in C.
 3071  1370  3E F8                   MVI	A,0F8H                   ;Form mask for sizing in accumulator. Now see if
 3072  1372  A6                      ANA	M                        ;Holding register has enough room for the conversion of
 3073  1373  C2 4D 13                JNZ	NINPUT                   ;Another digit. Ignore the input if no more room.
 3074  1376  2E 45                   MVI	L,OFS_INP_DIG_CNT                   ;If have room in register then set pointer to input digit
 3075  1378  46                      MOV	B,M                      ;Counter location. Fetch the present value.
 3076  1379  04                      INR	B                        ;Increment it to account for incoming digit.
 3077  137A  70                      MOV	M,B                      ;Restore updated count to storage location.
 3078  137B  CD 2E 14                CALL	DECBIN                  ;Call the DECimal to BINary conversion routine to add
 3079  137E  C3 4D 13                JMP	NINPUT                   ;In the new digit in holding registers. Continue inputting.
 3080  1381  47           PERIOD:	MOV	B,A                         ;Save character code in register B
 3081  1382  2E 46                   MVI	L,OFS_TEMP_STORE                   ;Set pointer to PERIOD indicator storage location
 3082  1384  7E                      MOV	A,M                      ;Fetch value in PERIOD indicator
 3083  1385  A7                      ANA	A                        ;Exercise CPU flags
 3084  1386  C2 FD 0A                JNZ	NUMERR                   ;If already have a period then display error message
 3085  1389  2E 45                   MVI	L,OFS_INP_DIG_CNT                   ;If not, change pointer to digit counter storage location
 3086  138B  77                      MOV	M,A                      ;Clear the digit counter back to zero
 3087  138C  2C                      INR	L                        ;Advance pointer to PERIOD indicator
 3088  138D  70                      MOV	M,B                      ;Set the PERIOD indicator
 3089  138E  C3 4D 13                JMP	NINPUT                   ;Continue processing the input character string
 3090  1391  CD F5 12     FNDEXP:	CALL	GETINP                     ;Get next character in Exponent
 3091  1394  FE AB                   CPI	0ABH                     ;See if it is code for + sign
 3092  1396  CA A1 13                JZ	EXPINP                    ;Jump ahead if yes.
 3093  1399  FE AD                   CPI	0ADH                     ;If not + sign, see if minus sign
 3094  139B  C2 A4 13                JNZ	NOEXPS                   ;If not minus sign then jump ahead
 3095  139E  2E 44                   MVI	L,OFS_SIGN_IND2+1                   ;For minus sign, set pointer to EXP SIGN indicator
 3096  13A0  77                      MOV	M,A                      ;Set the EXP SIGN indicator for a minus exponent
 3097  13A1  CD F5 12     EXPINP:	CALL	GETINP                     ;Fetch the next character in the decimal exponent
 3098  13A4  A7           NOEXPS:	ANA	A                           ;Exercise the CPU flags
 3099  13A5  CA C9 13                JZ	ENDINP                    ;If character inputted was zero, then end of input string
 3100  13A8  FE B0                   CPI	0B0H                     ;If not end of string, check to see
 3101  13AA  FA FD 0A                JM	NUMERR                    ;If character represents
 3102  13AD  FE BA                   CPI	0BAH                     ;A valid decimal number (0 to 9)
 3103  13AF  F2 FD 0A                JP	NUMERR                    ;Display error message if not a valid digit at this point!
 3104  13B2  E6 0F                   ANI	00FH                     ;Else trim the ASCII code to BCD
 3105  13B4  47                      MOV	B,A                      ;And save in register B
 3106  13B5  2E 6F                   MVI	L,OFS_FP_WORK_6F                   ;Set pointer to input exponent storage location
 3107  13B7  3E 03                   MVI	A,003H                   ;Set accumulator equal to three
 3108  13B9  BE                      CMP	M                        ;See if any previous digit in exponent greater than three
 3109  13BA  FA FD 0A                JM	NUMERR                    ;Display error message if yes
 3110  13BD  4E                      MOV	C,M                      ;Else save any previous value in register C
 3111  13BE  7E                      MOV	A,M                      ;And also place any previous value in accumulator
 3112  13BF  A7                      ANA	A                        ;Clear the carry bit with this instruction
 3113  13C0  17                      RAL                          ;Single precision multiply by ten algorithm
 3114  13C1  17                      RAL                          ;Two rotate lefts equals times four
 3115  13C2  81                      ADD	C                        ;Adding in the digit makes total times five
 3116  13C3  17                      RAL                          ;Rotating left again equals times ten
 3117  13C4  80                      ADD	B                        ;now add in digit just inputted
 3118  13C5  77                      MOV	M,A                      ;Restore the value to exponent storage location
 3119  13C6  C3 A1 13                JMP	EXPINP                   ;Go get any additional exponent int)ut
 3120  13C9  2E 43        ENDINP:	MVI	L,OFS_SIGN_IND2                      ;Set pointer to mantissa SIGN indicator
 3121  13CB  7E                      MOV	A,M                      ;Fetch the SIGN indicator to the acclimulator
 3122  13CC  A7                      ANA	A                        ;Exercise the CPU flags
 3123  13CD  CA D7 13                JZ	FININP                    ;If SIGN indicator is zero, go finish up as nr is positive
 3124  13D0  2E 6C                   MVI	L,OFS_FP_WORK_6C                   ;But, if indicator is non-zero, number is negative
 3125  13D2  06 03                   MVI	B,003H                   ;Set pntr to LSW of storage registers, set precision entr
 3126  13D4  CD 68 12                CALL	COMPLM                  ;Negate the triple-precision number in holding registers
 3127  13D7  2E 6B        FININP:	MVI	L,OFS_FP_WORK_6B                      ;Set pointer to input storage LS~V minus one
 3128  13D9  AF                      XRA	A                        ;Clear the accumulator
 3129  13DA  77                      MOV	M,A                      ;Clear the LSW minus one location
 3130  13DB  54                      MOV	D,H                      ;Set register D to floating point working page
 3131  13DC  1E 53                   MVI	E,OFS_FPACC_LSW_M1                   ;Set E to address of FPACC LSW minus one
 3132  13DE  06 04                   MVI	B,004H                   ;Set precision counter
 3133  13E0  CD 0B 11                CALL	MOVEIT                  ;Move number from input register to FPACC
 3134  13E3  CD 34 10                CALL	FPFLT                   ;Now convert the binary fixed point to floating point
 3135  13E6  2E 44                   MVI	L,OFS_SIGN_IND2+1                   ;Set pointer to Exponent SIGN indicator location
 3136  13E8  7E                      MOV	A,M                      ;Fetch the value of the EXP SIGN indicator
 3137  13E9  A7                      ANA	A                        ;Exercise the CPU flags
 3138  13EA  2E 6F                   MVI	L,OFS_FP_WORK_6F                   ;Reset pointer to input exponent storage location
 3139  13EC  CA F5 13                JZ	POSEXP                    ;If EXP SIGN indicator zero, exponent is positive
 3140  13EF  7E                      MOV	A,M                      ;Else, exponent is negative so must negate
 3141  13F0  EE FF                   XRI	0FFH                     ;The value in the input exponent storage location
 3142  13F2  C6 01                   ADI	001H                     ;By performing this two's complement
 3143  13F4  77                      MOV	M,A                      ;Restore the negated value to exponent storage location
 3144  13F5  2E 46        POSEXP:	MVI	L,OFS_TEMP_STORE                      ;Set pointer to PERIOD indicator storage location
 3145  13F7  7E                      MOV	A,M                      ;Fetch the contents of the PERIOD indicator
 3146  13F8  A7                      ANA	A                        ;Exercise the CPU flags
 3147  13F9  CA 00 14                JZ	EXPOK                     ;If PERIOD indicator clear, no decimal point involved
 3148  13FC  2E 45                   MVI	L,OFS_INP_DIG_CNT                   ;If have a decimal point, set pointer to digit counter
 3149  13FE  AF                      XRA	A                        ;Storage location. Clear the accumulator.
 3150  13FF  96                      SUB	M                        ;And get a negated value of the digit counter in ACC
 3151  1400  2E 6F        EXPOK:	MVI	L,OFS_FP_WORK_6F                       ;Change pointer to input exponent storage location
 3152  1402  86                      ADD	M                        ;Add this value to negated digit counter value
 3153  1403  77                      MOV	M,A                      ;Restore new value to storage location
 3154  1404  FA 1B 14                JM	MINEXP                    ;If new value is minus, skip over next subroutine
 3155  1407  C8                      RZ                           ;If new value is zero, no further processing required
 3156                     
 3157                                                       ;Following subroutine will multiply the floating point
 3158                                                       ;binary number stored in FPACC by ten tirnes the
 3159                                                       ;value stored in the deciinal exponent storage location.
 3160                     
 3161  1408  2E 88        FPX10:	MVI	L,OFS_OP_STKPTR                       ;Set pointer to registers containing floating point
 3162  140A  26 01                   MVI	H,HIGH OLDPG1            ;** Binary representation of 10 (decimal).
 3163  140C  CD BF 12                CALL	FACXOP                  ;Transfer FPACC to FPOP and 10 (dec) to FPACC
 3164  140F  CD 26 11                CALL	FPMULT                  ;Multiply FPOP (formerly FPACC) by 10 (decimal)
 3165  1412  2E 6F                   MVI	L,OFS_FP_WORK_6F                   ;Set pointer to decimal exponent storage location
 3166  1414  4E                      MOV	C,M                      ;Fetch the exponent value
 3167  1415  0D                      DCR	C                        ;Decrement
 3168  1416  71                      MOV	M,C                      ;Restore to storage
 3169  1417  C2 08 14                JNZ	FPX10                    ;If exponent value is not zero, continue multiplication
 3170  141A  C9                      RET                          ;When exponent is zero can exit. Conversion completed.
 3171                     
 3172                                                       ;Following subroutine will multiply the floating point
 3173                                                       ;binary number stored in PPACC by 0.1 times the value
 3174                                                       ;(negative) stored in the decimal exponent storage location
 3175                     
 3176                     MINEXP:
 3177  141B  2E 8C        FPD10:	MVI	L,OFS_FP_CONST_0P1                       ;Set pointer to registers containing floating point
 3178  141D  26 01                   MVI	H,HIGH OLDPG1            ;** Binary representation of 0.1 (decimal).
 3179  141F  CD BF 12                CALL	FACXOP                  ;Transfer FPACC to FPOP and 0.1 (dec) to FPACC
 3180  1422  CD 26 11                CALL	FPMULT                  ;Multitply FPOP (formerly FPACC) by 0.1 (decimal)
 3181  1425  2E 6F                   MVI	L,OFS_FP_WORK_6F                   ;Set pointer to decimal exponent storage location
 3182  1427  46                      MOV	B,M                      ;Fetch the exponent value
 3183  1428  04                      INR	B                        ;Increment
 3184  1429  70                      MOV	M,B                      ;Restore to storage
 3185  142A  C2 1B 14                JNZ	FPD10                    ;If exponent value is not zero, continue multiplication
 3186  142D  C9                      RET                          ;When exponent is zero can exit. Conversion completed.
 3187                     
 3188                                                       ;Following subroutine is used
 3189                                                       ;to convert decimal charac-
 3190                                                       ;ters to binary fixed point forinat
 3191                                                       ;in a triple-precision format.
 3192                     
 3193  142E  CD CF 12     DECBIN:	CALL	SAVEHL                     ;Save entry value of D, E, H and L in memory
 3194  1431  2E 6B                   MVI	L,OFS_FP_WORK_6B                   ;Set pointer to temporary storage location
 3195  1433  79                      MOV	A,C                      ;Restore character inputted to accumulator
 3196  1434  E6 0F                   ANI	00FH                     ;Trim ASCII code to BCD
 3197  1436  77                      MOV	M,A                      ;Store temporarily
 3198  1437  1E 68                   MVI	E,OFS_FP_WORK_68                   ;Set pointer to working area LSW of multi-byte register
 3199  1439  2E 6C                   MVI	L,OFS_FP_WORK_6C                   ;Set another pointer to LSW of conversion register
 3200  143B  54                      MOV	D,H                      ;Make sure D set to page of working area
 3201  143C  06 03                   MVI	B,003H                   ;Set precision counter
 3202  143E  CD 0B 11                CALL	MOVEIT                  ;Move original value of conversion register to working
 3203  1441  2E 6C                   MVI	L,OFS_FP_WORK_6C                   ;Register. Reset pointer to LSW of conversion register.
 3204  1443  06 03                   MVI	B,003H                   ;Set precision counter
 3205  1445  CD 7F 12                CALL	ROTATL                  ;Rotate register left, (Multiplies value by two.)
 3206  1448  2E 6C                   MVI	L,OFS_FP_WORK_6C                   ;Reset pointer to LSW.
 3207  144A  06 03                   MVI	B,003H                   ;Set precision counter
 3208  144C  CD 7F 12                CALL	ROTATL                  ;Multiply by two again (total now times four).
 3209  144F  1E 6C                   MVI	E,OFS_FP_WORK_6C                   ;Set pointer to LSW of conversion register.
 3210  1451  2E 68                   MVI	L,OFS_FP_WORK_68                   ;Set pointer to LSW of working register (original value).
 3211  1453  06 03                   MVI	B,003H                   ;Set precision counter.
 3212  1455  CD 57 12                CALL	ADDER                   ;Add original value to rotated value (now times five).
 3213  1458  2E 6C                   MVI	L,OFS_FP_WORK_6C                   ;Reset pointer to LSW
 3214  145A  06 03                   MVI	B,003H                   ;Set precision counter
 3215  145C  CD 7F 12                CALL	ROTATL                  ;Multiply by two once more (total now times ten).
 3216  145F  2E 6A                   MVI	L,OFS_FP_WORK_6A                   ;Set pointer to clear working register locatiotis
 3217  1461  AF                      XRA	A                        ;Clear the accumulator
 3218  1462  77                      MOV	M,A                      ;Clear MSW of working register
 3219  1463  2D                      DCR	L                        ;Decrement pointer
 3220  1464  77                      MOV	M,A                      ;Clear next byte
 3221  1465  2E 6B                   MVI	L,OFS_FP_WORK_6B                   ;Set pointer to current digit storage location
 3222  1467  7E                      MOV	A,M                      ;Fetch the current digit
 3223  1468  2E 68                   MVI	L,OFS_FP_WORK_68                   ;Change pointer to LSW of working register
 3224  146A  77                      MOV	M,A                      ;Deposit the current digit in LSW of working register
 3225  146B  1E 6C                   MVI	E,OFS_FP_WORK_6C                   ;Set pointer to conversion register LSW
 3226  146D  06 03                   MVI	B,003H                   ;Set precision counter
 3227  146F  CD 57 12                CALL	ADDER                   ;Add current digit to conversion register to complete
 3228  1472  C3 DF 12                JMP	RESTHL                   ;Conversion. Exit to caller by restoring CPU registers.
 3229  1475  26 01        FPOUT:	MVI	H,HIGH OLDPG1                ;** Set H to working area for floating point routines
 3230  1477  2E 6F                   MVI	L,OFS_FP_WORK_6F                   ;Set pointer to decimal exponent storage location
 3231  1479  36 00                   MVI	M,000H                   ;Initialize storage location to zero
 3232  147B  2E 56                   MVI	L,OFS_FPACC_MSW                   ;Change pointer to FPACC (number to be outputted)
 3233  147D  7E                      MOV	A,M                      ;And fetch MSW of FPACC
 3234  147E  A7                      ANA	A                        ;Test the contents of MSW of FPACC
 3235  147F  FA 87 14                JM	OUTNEG                    ;If most significant bit of MSW is a one, have a minus nr.
 3236  1482  3E A0                   MVI	A,0A0H                   ;Else number is positive, set ASCII code for space for a
 3237  1484  C3 90 14                JMP	AHEAD1                   ;Positive number and go display a space
 3238  1487  2E 54        OUTNEG:	MVI	L,OFS_FPACC                      ;If number in FPACC is negative must negate in order
 3239  1489  06 03                   MVI	B,003H                   ;To display. Set pntr to LSW of FPACC & set prec. cntr.
 3240  148B  CD 68 12                CALL	COMPLM                  ;Negate the number in the FPACC to make it positive
 3241  148E  3E AD                   MVI	A,0ADH                   ;But load ACC with ASCII code for minus sign
 3242  1490  CD 82 03     AHEAD1:	CALL	ECHO                       ;Call user display driver to output space or minus sign
 3243  1493  2E 48                   MVI	L,OFS_FP_MODE_IND                   ;Set pointer to FIXED/FLOAT indicator
 3244  1495  7E                      MOV	A,M                      ;Fetch value of FIXED/FLOAT indicator
 3245  1496  A7                      ANA	A                        ;Test contents of indicator. If contents are zero, calling
 3246  1497  CA AB 14                JZ	OUTFLT                    ;Routine has directed floating point output format.
 3247  149A  2E 57                   MVI	L,OFS_FPACC_EXP                   ;If indicator non-zero, fixed point fonnat requested if
 3248  149C  3E 17                   MVI	A,017H                   ;Possible. Point to FPACC Exponent. Put 23 decimal in
 3249  149E  46                      MOV	B,M                      ;Accumulator. Fetch FPACC Exponent into register B
 3250  149F  04                      INR	B                        ;And exercise the register to test its
 3251  14A0  05                      DCR	B                        ;Original contents. If FPACC Exponent is negative in
 3252  14A1  FA AB 14                JM	OUTFLT                    ;Value then go to floating point output forrnat. If value
 3253  14A4  90                      SUB	B                        ;Is positive, subtract value from 23 (decimal). If result
 3254  14A5  FA AB 14                JM	OUTFLT                    ;Negative, number is too big to use fixed format.
 3255  14A8  C3 B9 14                JMP	OUTFIX                   ;Else, can use fixed format so skip next routine
 3256  14AB  2E 48        OUTFLT:	MVI	L,OFS_FP_MODE_IND                      ;Set pointer to FIXED/FLOAT indicator.
 3257  14AD  36 00                   MVI	M,000H                   ;Clear indicator to indicate floating point output format
 3258  14AF  3E B0                   MVI	A,0B0H                   ;Load ASCII code for '0' into accumulator
 3259  14B1  CD 82 03                CALL	ECHO                    ;Call user display driver to output '0' as first character
 3260  14B4  3E AE                   MVI	A,0AEH                   ;Number string. Now load ASCII code for decimal point.
 3261  14B6  CD 82 03                CALL	ECHO                    ;Call user display driver to output '.'as second character.
 3262  14B9  2E 57        OUTFIX:	MVI	L,OFS_FPACC_EXP                      ;Set pointer to FPACC Exponent
 3263  14BB  3E FF                   MVI	A,0FFH                   ;Load accumulator with minus one
 3264  14BD  86                      ADD	M                        ;Add value in FPACC Exponent
 3265  14BE  77                      MOV	M,A                      ;Restore compensated exponent value
 3266                     
 3267                                                       ;Next portion of routine establishes the value for the
 3268                                                       ;decimal exponent that will be outputted by processing
 3269                                                       ;the binary exponent value in the FPACC.
 3270                     
 3271  14BF  F2 DE 14     DECEXT:	JP	DECEXD                       ;If compensated exponent value is zero or positive
 3272  14C2  3E 04                   MVI	A,004H                   ;Then go multiply FPACC by 0.1 (decimal). Else,
 3273  14C4  86                      ADD	M                        ;Add four to the exponent value.
 3274  14C5  F2 F0 14                JP	DECOUT                    ;If exponent now zero or positive, ready to output
 3275  14C8  2E 88                   MVI	L,OFS_OP_STKPTR                   ;If exponent negative, multiply FPACC by 10 (decimal)
 3276  14CA  26 01                   MVI	H,HIGH OLDPG1            ;** Set pointer to registers holding 10 (dec) in binary
 3277  14CC  CD BF 12                CALL	FACXOP                  ;Floating point format. Set up for multiplication.
 3278  14CF  CD 26 11                CALL	FPMULT                  ;Perform the multiplication. Answer in FPACC.
 3279  14D2  2E 6F                   MVI	L,OFS_FP_WORK_6F                   ;Set pointer to decimal exponent storage location.
 3280  14D4  4E                      MOV	C,M                      ;Each time the FPACC is multiplied by ten, need to
 3281  14D5  0D                      DCR	C                        ;Decrement the value in the decinial exponent storage
 3282  14D6  71                      MOV	M,C                      ;Location. (This establishes decimal exponent value!)
 3283  14D7  2E 57        DECREP:	MVI	L,OFS_FPACC_EXP                      ;Reset pointer to FPACC Exponent
 3284  14D9  7E                      MOV	A,M                      ;Fetch value in exponent
 3285  14DA  A7                      ANA	A                        ;Test value
 3286  14DB  C3 BF 14                JMP	DECEXT                   ;Repeat process as required
 3287  14DE  2E 8C        DECEXD:	MVI	L,OFS_FP_CONST_0P1                      ;If exponent is positive, multiply FPACC by 0.1
 3288  14E0  26 01                   MVI	H,HIGH OLDPG1            ;** Set pointer to registers holding 0.1 dec in binary
 3289  14E2  CD BF 12                CALL	FACXOP                  ;Floating point format. Set up for multipli(-ation.
 3290  14E5  CD 26 11                CALL	FPMULT                  ;Perform the multiplication. Answer in FPACC.
 3291  14E8  2E 6F                   MVI	L,OFS_FP_WORK_6F                   ;Set pointer to decimal exponent storage location.
 3292  14EA  46                      MOV	B,M                      ;Each time the FPACC is multiplied by one tenth, need
 3293  14EB  04                      INR	B                        ;To increment the value in the decimal exponent storage
 3294  14EC  70                      MOV	M,B                      ;Location. (This establishes decimal exponent value!)
 3295  14ED  C3 D7 14                JMP	DECREP                   ;Repeat process as required
 3296                     
 3297                                                       ;The next section outputs the mantissa
 3298                                                       ;(or fixed point number) by converting the value remaining
 3299                                                       ;in the FPACC (after the decimal exponent equivalent has
 3300                                                       ;been extracted from the original value if required by the
 3301                                                       ;previous routines) to a string of decirnal digits.
 3302  14F0  1E 74        DECOUT:	MVI	E,074H                      ;Set pointer to LSW of output working register
 3303  14F2  54                      MOV	D,H                      ;Set D to same page value as H
 3304  14F3  2E 54                   MVI	L,OFS_FPACC                   ;Set pointer to LSW of FPACC
 3305  14F5  06 03                   MVI	B,003H                   ;Set precision counter
 3306  14F7  CD 0B 11                CALL	MOVEIT                  ;Move value in FPACC to output working register
 3307  14FA  2E 77                   MVI	L,OFS_FP_WORK_77                   ;Set pointer to MSW plus one of output working register
 3308  14FC  36 00                   MVI	M,000H                   ;Clear that location to 0
 3309  14FE  2E 74                   MVI	L,OFS_FP_WORK_74                   ;Set pointer to LSW of output working register
 3310  1500  06 03                   MVI	B,003H                   ;Set precision counter
 3311  1502  CD 7F 12                CALL	ROTATL                  ;Rotate register left once to compensate for sign bit
 3312  1505  CD 93 15                CALL	OUTX10                  ;Multiply output register by 10, overflow into N4SW+ 1
 3313  1508  2E 57        COMPEN:	MVI	L,OFS_FPACC_EXP                      ;Set pointer back to FPACC Exponent
 3314  150A  46                      MOV	B,M                      ;Compensate for any remainder in the binary exponent
 3315  150B  04                      INR	B                        ;By performing a rotate right on the output working
 3316  150C  70                      MOV	M,B                      ;Register until the binary exponent becomes zero
 3317  150D  CA 1A 15                JZ	OUTDIG                    ;Go output decimal digits when this loop is finished
 3318  1510  2E 77                   MVI	L,OFS_FP_WORK_77                   ;Binary exponent compensating loop. Setpointe'r to
 3319  1512  06 04                   MVI	B,004H                   ;Working register MSW+L. Set precision counter.
 3320  1514  CD 89 12                CALL	ROTATR                  ;Rotate working register to the right.
 3321  1517  C3 08 15                JMP	COMPEN                   ;Repeat loop as required.
 3322  151A  2E 47        OUTDIG:	MVI	L,OFS_OUT_DIG_CNT                      ;Set pointer to output digit counter storage location
 3323  151C  36 07                   MVI	M,007H                   ;Initialize to value of seven
 3324  151E  2E 77                   MVI	L,OFS_FP_WORK_77                   ;Change pointer to output working register MSW+L
 3325  1520  7E                      MOV	A,M                      ;Fetch MSW+L byte containing BCD of digit to be
 3326  1521  A7                      ANA	A                        ;Displayed. Test the contents of this byte.
 3327  1522  CA 75 15                JZ	ZERODG                    ;If zero jump to ZERODG routine.
 3328  1525  2E 77        OUTDGS:	MVI	L,OFS_FP_WORK_77                      ;Reset pointer to working register MSW+L
 3329  1527  7E                      MOV	A,M                      ;Fetch BCD of digit to be outputted
 3330  1528  A7                      ANA	A                        ;Exercise CPU flags
 3331  1529  C2 45 15                JNZ	OUTDGX                   ;If not zero, go display the digit
 3332  152C  2E 48                   MVI	L,OFS_FP_MODE_IND                   ;If zero, change pointer to FIXED/FLOAT indicator
 3333  152E  7E                      MOV	A,M                      ;Fetch the indicator into the accumulator
 3334  152F  A7                      ANA	A                        ;Test value of indicator
 3335  1530  CA 44 15                JZ	OUTZER                    ;If in floating point mode, go display the digit
 3336  1533  2E 6F                   MVI	L,OFS_FP_WORK_6F                   ;Else change pointer to decimal exponent storage
 3337  1535  4E                      MOV	C,M                      ;Location, which, for fixed point, will have a positive
 3338  1536  0D                      DCR	C                        ;Value for all digits before the decimal point. Decrement
 3339  1537  0C                      INR	C                        ;And increment to exercise flags. See if count is positive.
 3340  1538  F2 44 15                JP	OUTZER                    ;If positive, must display any zero digit.
 3341  153B  2E 76                   MVI	L,OFS_FP_WORK_76                   ;If not, change pointer to MSW of working register
 3342  153D  7E                      MOV	A,M                      ;And test to see if any significant digits coming up
 3343  153E  E6 E0                   ANI	0E0H                     ;By forming a mask and testing for presence of bits
 3344  1540  C2 44 15                JNZ	OUTZER                   ;If more significant digits coming up soon, display the
 3345  1543  C9                      RET                          ;Zero digit. Else, exit to calling routine. Finished.
 3346  1544  AF           OUTZER:	XRA	A                           ;Clear the accumulator to restore zero digit value
 3347  1545  C6 B0        OUTDGX:	ADI	0B0H                        ;Add 260 (octal) to BCD code in ACC to form ASCII
 3348  1547  CD 82 03                CALL	ECHO                    ;Code and call the user's display driver subroutine
 3349  154A  2E 48        DECRDG:	MVI	L,OFS_FP_MODE_IND                      ;Set pointer to FIXED/FLOAT indicator storage
 3350  154C  7E                      MOV	A,M                      ;Fetch the indicator to the accumulator
 3351  154D  A7                      ANA	A                        ;Exercise the CPU flags
 3352  154E  C2 5F 15                JNZ	CKDECP                   ;If indicator non-zero, doing fixed point output
 3353  1551  2E 47                   MVI	L,OFS_OUT_DIG_CNT                   ;Else, get output digit counter
 3354  1553  4E                      MOV	C,M
 3355  1554  0D                      DCR	C                        ;Decrement the digit counter & restore to storage
 3356  1555  71                      MOV	M,C
 3357  1556  CA C0 15                JZ	EXPOUT                    ;When digit counter is zero, go take care of exponent
 3358  1559  CD 93 15     PUSHIT:	CALL	OUTX10                     ;Else push next BCD digit out of working register
 3359  155C  C3 25 15                JMP	OUTDGS                   ;And continue the outputting process
 3360  155F  2E 6F        CKDECP:	MVI	L,OFS_FP_WORK_6F                      ;For fixed point output, decimal exponent serves as
 3361  1561  4E                      MOV	C,M                      ;Counter for number of digits before decimal point
 3362  1562  0D                      DCR	C                        ;Fetch the counter and decrement it to account for
 3363  1563  71                      MOV	M,C                      ;Current digit being processed. Restore to storage.
 3364  1564  C2 6C 15                JNZ	NODECP                   ;If count does not go to zero, jump ahead.
 3365  1567  3E AE                   MVI	A,0AEH                   ;When count reaches zero, load ASCII code for period
 3366  1569  CD 82 03                CALL	ECHO                    ;And call user's display driver to display decimal point
 3367  156C  2E 47        NODECP:	MVI	L,OFS_OUT_DIG_CNT                      ;Set pointer to output digit counter storage location
 3368  156E  4E                      MOV	C,M                      ;Fetch the digit counter
 3369  156F  0D                      DCR	C                        ;Decrement the value
 3370  1570  71                      MOV	M,C                      ;Restore to storage
 3371  1571  C8                      RZ                           ;If counter reaches zero, exit to caller. Finished.
 3372  1572  C3 59 15                JMP	PUSHIT                   ;Else continue to output the number.
 3373  1575  2E 6F        ZERODG:	MVI	L,OFS_FP_WORK_6F                      ;If first digit of floating point number is a zero, set
 3374  1577  4E                      MOV	C,M                      ;Pointer to decimal exponent storage location.
 3375  1578  0D                      DCR	C                        ;Decrement the value to compensate for skipping
 3376  1579  71                      MOV	M,C                      ;Display of first digit. Restore to storage.
 3377  157A  2E 76                   MVI	L,OFS_FP_WORK_76                   ;Change pointer to MSW of output working register
 3378  157C  7E                      MOV	A,M                      ;Fetch MSW of output working register
 3379  157D  A7                      ANA	A                        ;Test the contents
 3380  157E  C2 4A 15                JNZ	DECRDG                   ;If non-zero, continue outputting
 3381  1581  2D                      DCR	L                        ;Else decrement pointer to next byte in working register
 3382  1582  7E                      MOV	A,M                      ;Fetch its contents
 3383  1583  A7                      ANA	A                        ;Test
 3384  1584  C2 4A 15                JNZ	DECRDG                   ;If non-zero, continue outputting
 3385  1587  2D                      DCR	L                        ;Else decrement pointer to LSW of working register
 3386  1588  7E                      MOV	A,M                      ;Fetch its contents
 3387  1589  A7                      ANA	A                        ;Test
 3388  158A  C2 4A 15                JNZ	DECRDG                   ;If non-zero, continue outputting
 3389  158D  2E 6F                   MVI	L,OFS_FP_WORK_6F                   ;If decimal mantissa is zero, set pointer to decirnal
 3390  158F  77                      MOV	M,A                      ;Exponent storage and clear it
 3391  1590  C3 4A 15                JMP	DECRDG                   ;Finish outputting
 3392                     
 3393                                                       ;Following routine multiplies the binary number in the
 3394                                                       ;output working register by ten to push the most signifi-
 3395                                                       ;cant digit out to the MSW+L byte.
 3396                     
 3397  1593  2E 77        OUTX10:	MVI	L,OFS_FP_WORK_77                      ;Set pointer to work ing register M SW+ 1
 3398  1595  36 00                   MVI	M,000H                   ;Clear it in preparation for receiving next digit pushed
 3399  1597  2E 74                   MVI	L,OFS_FP_WORK_74                   ;Into it. Change pointer to working register LSW.
 3400  1599  54                      MOV	D,H                      ;Set up register D to same page as H.
 3401  159A  1E 70                   MVI	E,070H                   ;Set second pointer to LSW of second working register
 3402  159C  06 04                   MVI	B,004H                   ;Set precision counter
 3403  159E  CD 0B 11                CALL	MOVEIT                  ;Move first working register into second
 3404  15A1  2E 74                   MVI	L,OFS_FP_WORK_74                   ;Reset pointer to LSW of first working register
 3405  15A3  06 04                   MVI	B,004H                   ;Set precision counter
 3406  15A5  CD 7F 12                CALL	ROTATL                  ;Rotate contents of first working register left (X 2)
 3407  15A8  2E 74                   MVI	L,OFS_FP_WORK_74                   ;Reset pointer to LSW
 3408  15AA  06 04                   MVI	B,004H                   ;Reset precision counter
 3409  15AC  CD 7F 12                CALL	ROTATL                  ;Rotate contents left again (X 4)
 3410  15AF  2E 70                   MVI	L,OFS_FP_WORK_70                   ;Set pointer to LSW of original value in 2'nd register
 3411  15B1  1E 74                   MVI	E,074H                   ;Set pointer to LSW of rotated value
 3412  15B3  06 04                   MVI	B,004H                   ;Set precision counter
 3413  15B5  CD 57 12                CALL	ADDER                   ;Add rotated value to original value (X 5)
 3414  15B8  2E 74                   MVI	L,OFS_FP_WORK_74                   ;Reset pointer to LSW of first working register
 3415  15BA  06 04                   MVI	B,004H                   ;Set precision counter
 3416  15BC  CD 7F 12                CALL	ROTATL                  ;Rotate contents left again (X 10)
 3417  15BF  C9                      RET                          ;Exit to calling routine
 3418                     
 3419                                                       ;The final group of routines in the floating point output
 3420                                                       ;section take care of outputting the decimal exponent
 3421                                                       ;portion of floating point numbers.
 3422                     
 3423  15C0  2E 6F        EXPOUT:	MVI	L,OFS_FP_WORK_6F                      ;Set pointer to decimal exponent storage location
 3424  15C2  7E                      MOV	A,M                      ;Fetch value to the accumulator
 3425  15C3  A7                      ANA	A                        ;Test the value
 3426  15C4  C8                      RZ                           ;If zero, then no exponent portion. Exit to caller.
 3427  15C5  3E C5                   MVI	A,0C5H                   ;Else, load ACC with ASCII code for letter E.
 3428  15C7  CD 82 03                CALL	ECHO                    ;Display E for Exponent via user's display driver rtn
 3429  15CA  7E                      MOV	A,M                      ;Get decimal exponent value back into ACC
 3430  15CB  A7                      ANA	A                        ;Test again
 3431  15CC  FA D4 15                JM	EXOUTN                    ;If value is negative, skip ahead
 3432  15CF  3E AB                   MVI	A,0ABH                   ;If positive, load ASCII code for + sign
 3433  15D1  C3 DB 15                JMP	AHEAD2                   ;Jump to display the + sign
 3434  15D4  EE FF        EXOUTN:	XRI	0FFH                        ;When decimal exponent is negative, must negate
 3435  15D6  C6 01                   ADI	001H                     ;Value for display purposes. Perform two's complement
 3436  15D8  77                      MOV	M,A                      ;And restore the negated value to storage location
 3437  15D9  3E AD                   MVI	A,0ADH                   ;Load ASCII code for minus sign
 3438  15DB  CD 82 03     AHEAD2:	CALL	ECHO                       ;Display the ASCII character in ACC
 3439  15DE  06 00                   MVI	B,000H                   ;Clear register B
 3440  15E0  7E                      MOV	A,M                      ;Fetch the decimal exponent value back into ACC
 3441  15E1  D6 0A        SUB12:	SUI	00AH                         ;Subtract 10 (decimal) from value in ACC
 3442  15E3  FA EB 15                JM	TOMUCH                    ;Break out of loop when accumulator goes negative
 3443  15E6  77                      MOV	M,A                      ;Else restore value to storage location
 3444  15E7  04                      INR	B                        ;Increment register B as a counter
 3445  15E8  C3 E1 15                JMP	SUB12                    ;Repeat loop to form tens value of decimal exponent
 3446  15EB  3E B0        TOMUCH:	MVI	A,0B0H                      ;Load base ASCII value for digit into the accumulator
 3447  15ED  80                      ADD	B                        ;Add to the count in B to forin tens digit of decimal
 3448  15EE  CD 82 03                CALL	ECHO                    ;Exponent. Display via user's driver subroutine
 3449  15F1  7E                      MOV	A,M                      ;Fetch remainder of decimal exponent value
 3450  15F2  C6 B0                   ADI	0B0H                     ;Add in ASCII base value to form final digit
 3451  15F4  CD 82 03                CALL	ECHO                    ;Display second digit of decirnal exponent
 3452  15F7  C9                      RET                          ;Finished outputting. Return to caller.
 3453                     ;;; The above RETURN SHOULD BE AT 25 367
 3454                     
 3455                     ;;; NOW OPEN AREA UP TO 26 000 CAN BE USED FOR PATCHING...
 3456                     
 3457                     	ORG	01600H
 3458  1600  00           	DB	000H                                ; CC FOR INPUT LINE BUFFER
 3459                     	DS	79                                  ; THE INPUT LINE BUFFER
 3460  1650  00 00 00 00  	DB	000H,000H,000H,000H                 ; THESE ARE SYMBOL BUFFER STORAGE
 3461  1654  00 00 00 00  	DB	000H,000H,000H,000H
 3462  1658  00 00 00 00  	DB	000H,000H,000H,000H                 ; SHOULD BE 26-120 TO 26 143
 3463  165C  00 00 00 00  	DB	000H,000H,000H,000H
 3464  1660  00 00 00 00  	DB	000H,000H,000H,000H
 3465  1664  00 00 00 00  	DB	000H,000H,000H,000H                 ; THESE LOCATIONS ARE AUXILIARY SYMBOL BUFFER
 3466  1668  00 00 00 00  	DB	000H,000H,000H,000H
 3467  166C  00 00 00 00  	DB	000H,000H,000H,000H                 ; SHOULD BE 26 144 TO 26 175
 3468  1670  00 00 00 00  	DB	000H,000H,000H,000H
 3469  1674  00 00 00 00  	DB	000H,000H,000H,000H
 3470  1678  00 00 00 00  	DB	000H,000H,000H,000H
 3471  167C  00 00        	DB	000H,000H
 3472  167E  00           	DB	000H                                ; TEMP SCAN STORAGE REGISTER
 3473  167F  00           	DB	000H                                ; TAB FLAG
 3474  1680  00           	DB	000H                                ; EVAL CURRENT TEMP REG.
 3475  1681  00           	DB	000H                                ; SYNTAX LINE NUMBER
 3476  1682  00           	DB	000H                                ; SCAN TEMPORARY REGISTER
 3477  1683  00           	DB	000H                                ; STATEMENT TOKEN
 3478  1684  00 00        	DB	000H,000H                           ; TEMPORARY WORKING REGISTERS
 3479  1686  00 00        	DB	000H,000H                           ; ARRAY POINTERS
 3480                     ;;; NOW WE SHOULD BE UP TO 26 210
 3481  1688  00           	DB	000H                                ; OPERATOR STACK POINTER
 3482                     	DS	15                                  ; OPERATOR STACK
 3483  1698  00           	DB	000H                                ; FUN/ARRAY STACK POINTER
 3484                     	DS	7                                   ; FUNCTION/ARRAY STACK
 3485                     ;;; THE LAST BYTE SHOULD HAVE BEEN 26 237
 3486                     
 3487                     
 3488                     	;; HEIRARCHY TABLE (FOR OUT OF STACK OPS)
 3489                     	;; USED BY PARSER ROUTINE.
 3490                     ;;; This SHOULD START AT 26 240
 3491  16A0  00           	DB	000H                                ; EOS
 3492  16A1  03           	DB	003H                                ; PLUS SIGN
 3493  16A2  03           	DB	003H                                ; MINUS SIGN
 3494  16A3  04           	DB	004H                                ; MULTIPLICATION SIGN
 3495  16A4  04           	DB	004H                                ; DIVISION SIGN
 3496  16A5  05           	DB	005H                                ; EXPONENT SIGN
 3497  16A6  06           	DB	006H                                ; LEFT PARENTHESIS
 3498  16A7  01           	DB	001H                                ; RIGHT PARENTHESIS
 3499  16A8  02           	DB	002H                                ; NOT ASSIGNED
 3500  16A9  02           	DB	002H                                ; LESS THAN SIGN
 3501  16AA  02           	DB	002H                                ; Equal sign
 3502  16AB  02           	DB	002H                                ; GREATER THAN SIGN
 3503  16AC  02           	DB	002H                                ; LESS THAN OR EQUAL COMBO
 3504  16AD  02           	DB	002H                                ; EQUAL OR GREATER THAN
 3505  16AE  02           	DB	002H                                ; LESS THAN OR GREATER THAN
 3506                     
 3507                     	;; HEIRARCHY TABLE (FOR INTO STACK OPS)
 3508                     	;; USED BY PARSER ROUTINE.
 3509                     ;;; This SHOULD START AT 26 257
 3510  16AF  00           	DB	000H                                ; EOS
 3511  16B0  03           	DB	003H                                ; PLUS SIGN
 3512  16B1  03           	DB	003H                                ; MINUS SIGN
 3513  16B2  04           	DB	004H                                ; MULTIPLICATION SIGN
 3514  16B3  04           	DB	004H                                ; DIVISION SIGN
 3515  16B4  05           	DB	005H                                ; EXPONENTIATION SIGN
 3516  16B5  01           	DB	001H                                ; LEFT PARENTHESIS
 3517  16B6  01           	DB	001H                                ; RIGHT PARENTHESIS
 3518  16B7  02           	DB	002H                                ; NOT ASSIGNED
 3519  16B8  02           	DB	002H                                ; LESS THAN SIGN
 3520  16B9  02           	DB	002H                                ; EQUAL SIGN
 3521  16BA  02           	DB	002H                                ; GREATER THAN SIGN
 3522  16BB  02           	DB	002H                                ; LESS THAN OR EQUAL SIGN
 3523  16BC  02           	DB	002H                                ; EQUAL TO OR GREATER THAN
 3524  16BD  02           	DB	002H                                ; LESS THAN OR GREATER THAN
 3525                     
 3526  16BE  00           	DB	000H                                ; EVAL START POINTER
 3527  16BF  00           	DB	000H                                ; EVAL FINISH POINTER
 3528                     
 3529                     	;; FUNCTION NAMES TABLE
 3530                     ;;; This SHOULD START AT 26 300
 3531  16C0  03           	DB	003H
 3532  16C1  49 4E 54     	DB	"INT"
 3533  16C4  03           	DB	003H
 3534  16C5  53 47 4E     	DB	"SGN"
 3535  16C8  03           	DB	003H
 3536  16C9  41 42 53     	DB	"ABS"
 3537  16CC  03           	DB	003H
 3538  16CD  53 51 52     	DB	"SQR"
 3539  16D0  03           	DB	003H
 3540  16D1  54 41 42     	DB	"TAB"
 3541  16D4  03           	DB	003H
 3542  16D5  52 4E 44     	DB	"RND"
 3543  16D8  03           	DB	003H
 3544  16D9  43 48 52     	DB	"CHR"
 3545  16DC  03           	DB	003H
 3546  16DD  55 44 46     	DB	"UDF"
 3547                     
 3548  16E0  00 00 00 00  	DB	000H,000H,000H,000H                 ; LINE NUMBER BUFFER STORAGE
 3549  16E4  00 00 00 00  	DB	000H,000H,000H,000H                 ; (SHOULD BE 340-347)
 3550  16E8  00 00 00 00  	DB	000H,000H,000H,000H                 ; AUX LINE NUMBER BUFFER
 3551  16EC  00 00 00 00  	DB	000H,000H,000H,000H                 ; (SHOULD BE 350-357)
 3552                     ;;; The following data is a change in page 3 of Scelbal update issue 4
 3553                     ;;; which apparently makes the "INSERT" command work correctly, the
 3554                     ;;; first time (later SCR commands load 33 into this spot) 
 3555  16F0  1B           	DB	01BH                                ; USER PGM LINE PTR (PG)
 3556  16F1  00           	DB	000H                                ; USER PGM LINE PTR (LOW)
 3557  16F2  00           	DB	000H                                ; AUX PGM LINE PTR (PG)
 3558  16F3  00           	DB	000H                                ; AUX PGM LINE PTR (LOW)
 3559  16F4  00           	DB	000H                                ; END OF USER PGM BUFFER PTR (PG)
 3560  16F5  00           	DB	000H                                ; END OF USER PGM BUFFER PTR (LOW)
 3561  16F6  00           	DB	000H                                ; PARENTHESIS COUNTER (366)
 3562  16F7  00           	DB	000H                                ; QUOTE INDICATOR
 3563  16F8  00           	DB	000H                                ; TABLE COUNTER (370)
 3564                     ;;; locations 371-377 NOT ASSIGNED
 3565                     
 3566                     	ORG	01700H
 3567  1700  03           	DB	003H
 3568  1701  52 45 4D     	DB	"REM"
 3569  1704  02           	DB	002H
 3570  1705  49 46        	DB	"IF"
 3571  1707  03           	DB	003H
 3572  1708  4C 45 54     	DB	"LET"
 3573  170B  04           	DB	004H
 3574  170C  47 4F 54 4F  	DB	"GOTO"
 3575  1710  05           	DB	005H
 3576  1711  50 52 49 4E  	DB	"PRINT"
       1715  54         
 3577  1716  05           	DB	005H
 3578  1717  49 4E 50 55  	DB	"INPUT"
       171B  54         
 3579  171C  03           	DB	003H
 3580  171D  46 4F 52     	DB	"FOR"
 3581  1720  04           	DB	004H
 3582  1721  4E 45 58 54  	DB	"NEXT"
 3583  1725  05           	DB	005H
 3584  1726  47 4F 53 55  	DB	"GOSUB"
       172A  42         
 3585  172B  06           	DB	006H
 3586  172C  52 45 54 55  	DB	"RETURN"
       1730  52 4E      
 3587  1732  03           	DB	003H
 3588  1733  44 49 4D     	DB	"DIM"
 3589  1736  03           	DB	003H
 3590  1737  45 4E 44     	DB	"END"
 3591  173A  00           	DB	000H                                ; END OF TABLE, SHOULD BE 072
 3592                     
 3593  173B  00           	DB	000H                                ; GOSUB STACK POINTER
 3594                     	DS	1                                   ; NOT ASSIGNED;
 3595  173D  00           	DB	000H                                ; NUMBER OF ARRAYS COUNTER
 3596  173E  00           	DB	000H                                ; ARRAY POINTER
 3597  173F  00           	DB	000H                                ; VARIABLES COUNTER SHOULD BE 077
 3598  1740  00 00 00 00  	DB	000H,000H,000H,000H                 ; USED AS THE GOSUB STACK 100-117
 3599  1744  00 00 00 00  	DB	000H,000H,000H,000H
 3600  1748  00 00 00 00  	DB	000H,000H,000H,000H
 3601  174C  00 00 00 00  	DB	000H,000H,000H,000H
 3602  1750  00 00 00 00  	DB	000H,000H,000H,000H                 ; USED AS ARRAY VARIABLES TABLE
 3603  1754  00 00 00 00  	DB	000H,000H,000H,000H                 ; SHOULD BE 120-137
 3604  1758  00 00 00 00  	DB	000H,000H,000H,000H
 3605  175C  00 00 00 00  	DB	000H,000H,000H,000H
 3606                     
 3607  1760  00 00 00 00  	DB	000H,000H,000H,000H                 ; USED FOR FOR/NEXT STACK STORAGE
 3608  1764  00 00 00 00  	DB	000H,000H,000H,000H                 ; SHOULD BE 140 TO 177
 3609  1768  00 00 00 00  	DB	000H,000H,000H,000H
 3610  176C  00 00 00 00  	DB	000H,000H,000H,000H
 3611  1770  00 00 00 00  	DB	000H,000H,000H,000H
 3612  1774  00 00 00 00  	DB	000H,000H,000H,000H
 3613  1778  00 00 00 00  	DB	000H,000H,000H,000H
 3614  177C  00 00 00 00  	DB	000H,000H,000H,000H
 3615  1780  00           	DB	000H                                ; FOR/NEXT STACK POINTER
 3616  1781  00           	DB	000H                                ; ARRAY/VARIABLE FLAG
 3617  1782  00           	DB	000H                                ; STOSYM COUNTER
 3618  1783  00           	DB	000H                                ; FUN/ARRAY STACK POINTER (203
 3619  1784  00           	DB	000H                                ; ARRAY VALUES POINTER
 3620                     	DS	3                                   ; NOT USED (SHOULD BE 205-207)
 3621  1788  00           	DB	000H                                ; USED AS VARIABLES SYMBOL TABLE
 3622                     	DS	119                                 ; (SHOULD BE 211-377 RESERVED)
 3623                     ;;; The above should cover 211 to 377
 3624                     	;; THERE ARE NOW ADDRESSES AT START OF PAGE 30, NOT ASSIGNED;
 3625                     
 3626                     
 3627                     ;;; The following is PATCH NR.1
 3628                     	ORG	01800H
 3629  1800  2E 53        PATCH1:	MVI	L,OFS_SYMBOL_BUF+3
 3630  1802  36 00        	MVI	M,000H
 3631  1804  2E 5B        	MVI	L,OFS_FPOP_EXT+3
 3632  1806  36 00        	MVI	M,000H
 3633  1808  C9           	RET
 3634                     
 3635                     	
 3636                     	
 3637                     	ORG	0180BH
 3638                     	
 3639  180B  2E 64        NEXT:	MVI	L,OFS_FP_WORK+4                        ;Load L with start of AUX SYMBOL BUFFER
 3640  180D  26 16                   MVI	H,HIGH OLDPG26           ;** Set H to page of AUX SYMBOL BUFFER
 3641  180F  36 00                   MVI	M,000H                   ;Initialize AUX SYMBOL BUFFER by clearing first byte
 3642  1811  2E 82                   MVI	L,OFS_SCAN_PTR                   ;Change L to address of SCAN pointer
 3643  1813  46                      MOV	B,M                      ;Fetch pointer value to CPU register B
 3644  1814  04                      INR	B                        ;Add one to the current pointer value
 3645  1815  2E 81                   MVI	L,OFS_SYNTAX_PTR                   ;Load L with address of NEXT pointer storage location
 3646  1817  70                      MOV	M,B                      ;Place the updated SCAN pointer as the NEXT pointer
 3647  1818  2E 81        NEXT1:	MVI	L,OFS_SYNTAX_PTR                       ;Reset L to address of NEXT pointer storage location
 3648  181A  CD A0 02                CALL	GETCHR                  ;Fetch the character pointed to by the NEXT pointer
 3649  181D  CA 25 18                JZ	NEXT2                     ;If the character is a space, ignore it
 3650  1820  2E 64                   MVI	L,OFS_FP_WORK+4                   ;Else, load L with start of AUX SYMBOL BUFFER
 3651  1822  CD CC 02                CALL	CONCT1                  ;Concatenate the character onto the AUX SYMBOL BF
 3652  1825  2E 81        NEXT2:	MVI	L,OFS_SYNTAX_PTR                       ;Reset L to address of NEXT pointer storage location
 3653  1827  CD 03 03                CALL	LOOP                    ;Advance the NEXT pointer and see if end of line
 3654  182A  C2 18 18                JNZ	NEXT1                    ;Fetch next character in line if not end of line
 3655  182D  2E 64                   MVI	L,OFS_FP_WORK+4                   ;When reach end of line, should have variable name
 3656  182F  7E                      MOV	A,M                      ;In the AUX SYMBOL BUFFER. Fetch the (cc) for
 3657  1830  FE 01                   CPI	001H                     ;The buffer and see if variable name is just one letter
 3658  1832  C2 39 18                JNZ	NEXT3                    ;If more than one proceed directly to look for name
 3659  1835  2E 66                   MVI	L,OFS_FP_WORK_66                   ;In FOR/NEXT STACK. If have just a one letter name
 3660  1837  36 00                   MVI	M,000H                   ;Then set second character in buffer to zero
 3661  1839  2E 85        NEXT3:	MVI	L,OFS_TEMP_085                       ;Load L with address of FOR/NEXT STACK pointer
 3662  183B  26 17                   MVI	H,HIGH OLDPG27           ;** Set H to page of FOR/NEXT STACK pointer
 3663  183D  7E                      MOV	A,M                      ;Fetch the FOR/NEXT STACK pointer value to ACC
 3664  183E  07                      RLC                          ;Rotate value left to multiply by two. Then rotate it
 3665  183F  07                      RLC                          ;Left again to multiply by four. Add base address plus
 3666  1840  C6 5E                   ADI	05EH                     ;Two to form pointer to variable name in top of stack
 3667  1842  26 17                   MVI	H,HIGH OLDPG27           ;** Set H to page of FOR/NEXT STACK
 3668  1844  6F                      MOV	L,A                      ;Move pointer value from ACC to CPU register L
 3669  1845  16 16                   MVI	D,HIGH OLDPG26           ;** Set register D to page of AUX SYMBOL BUFFER
 3670  1847  1E 65                   MVI	E,065H                   ;Set register E to first character in the buffer
 3671  1849  06 02                   MVI	B,002H                   ;Set B to serve as a character counter
 3672  184B  CD F8 02                CALL	STRCPC                  ;See if variable name in the NEXT statement same as
 3673  184E  CA 58 18                JZ	NEXT4                     ;That stored in the top of the FOR/NEXT STACK
 3674  1851  3E C6        FORNXT:	MVI	A,0C6H                      ;Load ACC with ASCII code for letter F
 3675  1853  0E CE                   MVI	C,0CEH                   ;Load register C with ASCII code for letter N
 3676  1855  C3 96 02                JMP	ERROR                    ;Display For/Next (FN) error message if required
 3677  1858  2E F0        NEXT4:	MVI	L,OFS_TEMP_F0                       ;Load L with address of user program line pointer
 3678  185A  26 16                   MVI	H,HIGH OLDPG26           ;** Load H with page of user pgm line pntr storage loc.
 3679  185C  56                      MOV	D,M                      ;Fetch the page portion of the line pointer into D
 3680  185D  2C                      INR	L                        ;Advance the memory pointer
 3681  185E  5E                      MOV	E,M                      ;Fetch the low portion of the line pointer into E
 3682  185F  2C                      INR	L                        ;Advance pntr to AUXILIARY LINE POINTER storage
 3683  1860  72                      MOV	M,D                      ;Location and store value of line pointer there too (page)
 3684  1861  2C                      INR	L                        ;Advance pointer to second byte of AUXILIARY line
 3685  1862  73                      MOV	M,E                      ;Pointer and store value of line pointer (low portion)
 3686  1863  2E 85                   MVI	L,OFS_TEMP_085                   ;Load L with address of FOR/NEXT STACK pointer
 3687  1865  26 17                   MVI	H,HIGH OLDPG27           ;** Set H to page of FOR/NEXT STACK pointer
 3688  1867  7E                      MOV	A,M                      ;Fetch the FOR/NEXT STACK pointer value to ACC
 3689  1868  07                      RLC                          ;Rotate value left to multiply by two. Then rotate it
 3690  1869  07                      RLC                          ;Left again to multiply by four. Add base address to
 3691  186A  C6 5C                   ADI	05CH                     ;Form pointer to top of FOR/NEXT STACK and place
 3692  186C  6F                      MOV	L,A                      ;The pointer value into CPU register L. Fetch the page
 3693  186D  56                      MOV	D,M                      ;Address of the associated FOR statement line pointer
 3694  186E  2C                      INR	L                        ;Into register D. Advance the pointer and fetch the low
 3695  186F  5E                      MOV	E,M                      ;Address value into register E. Prepare to change user
 3696  1870  2E F0                   MVI	L,OFS_TEMP_F0                   ;Program line pointer to the FOR statement line by
 3697  1872  26 16                   MVI	H,HIGH OLDPG26           ;** Setting H & L to the user pgrn line pntr storage loc.
 3698  1874  72                      MOV	M,D                      ;Place the page value in the pointer storage location
 3699  1875  2C                      INR	L                        ;Advance the memory pointer
 3700  1876  73                      MOV	M,E                      ;Place the low value in the pointer storage location
 3701  1877  62                      MOV	H,D                      ;Now set up H and L to point to the start of the
 3702  1878  6B                      MOV	L,E                      ;Associated FOR statement line in the user pgm buffer
 3703  1879  16 16                   MVI	D,HIGH OLDPG26           ;** Change D to point to the line input buffer
 3704  187B  1E 00                   MVI	E,OFS_LINE_INP_BUF                   ;And set L to the gtart of the line input buffer
 3705  187D  CD 26 0A                CALL	MOVEC                   ;Move the associated FOR statement line into the input
 3706  1880  2E D5                   MVI	L,OFS_KW_TO                   ;Line buffer. Set L to point to start of TO string which is
 3707  1882  26 01                   MVI	H,HIGH OLDPG1            ;** Stored in a text strings storage area on this page
 3708  1884  CD 0A 0B                CALL	INSTR                   ;Search the statement line for the occurrence of TO
 3709  1887  7B                      MOV	A,E                      ;Register E will be zero if TO not found. Move E to ACC
 3710  1888  A7                      ANA	A                        ;To make a test. If TO found then proceed to set up for
 3711  1889  CA 51 18                JZ	FORNXT                    ;Evaluation. If TO not found, then have error condition.
 3712  188C  C6 02                   ADI	002H                     ;Advance the pointer over the characters in TO string
 3713  188E  2E BE                   MVI	L,OFS_EVAL_PTR                   ;Change L to point to EVAL pointer storage location
 3714  1890  26 16                   MVI	H,HIGH OLDPG26           ;** Set H to page of EVAL pointer. Set up the starting
 3715  1892  77                      MOV	M,A                      ;Position for the EVAL subroutine (after TO string)
 3716  1893  2E D8                   MVI	L,OFS_KW_STEP                   ;Set L to point to start of STEP string which is stored
 3717  1895  26 01                   MVI	H,HIGH OLDPG1            ;** In text stxings storage area on this page. Search the
 3718  1897  CD 0A 0B                CALL	INSTR                   ;Statement line for the occurrence of STEP
 3719  189A  7B                      MOV	A,E                      ;Register E will be zero if STEP not found. Move E to
 3720  189B  A7                      ANA	A                        ;The accumulator to make a test. If STEP found must
 3721  189C  C2 C0 18                JNZ	NEXT5                    ;Evaluate expression after STEP to get STEP SIZE.
 3722  189F  2E 04                   MVI	L,OFS_FP_CONST_1                   ;Else, have an IMPLIED STEP SIZE of 1.0. Set pointer
 3723  18A1  26 01                   MVI	H,HIGH OLDPG1            ;** To start of storage area for 1.0 in floating point
 3724  18A3  CD A4 12                CALL	FLOAD                   ;Format and call subroutine to load FPACC with 1.0
 3725  18A6  2E C4                   MVI	L,OFS_FN_STEP                   ;Set L to start of FOR/NEXT STEP SIZE storage loc.
 3726  18A8  CD AD 12                CALL	FSTORE                  ;Store the value 1.0 in the F/N STEP SIZE registers
 3727  18AB  2E 00                   MVI	L,OFS_LINE_INP_BUF                   ;Change L to the start of the input line buffer
 3728  18AD  26 16                   MVI	H,HIGH OLDPG26           ;** Set H to the page of the input line buffer
 3729  18AF  46                      MOV	B,M                      ;Fetch the (cc) into CPU register B (length of FOR line)
 3730  18B0  2E BF                   MVI	L,OFS_EVAL_FINISH                   ;Change L to EVAL FINISH pointer stomge location
 3731  18B2  70                      MOV	M,B                      ;Set the EVAL FINISH pointer to the end of the line
 3732  18B3  CD 94 03                CALL	EVAL                    ;Evaluate the LIMIT expression to obtain FOR LIMIT
 3733  18B6  2E C8                   MVI	L,OFS_FN_LIMIT                   ;Load L with address of start of F/N LIMIT registers
 3734  18B8  26 01                   MVI	H,HIGH OLDPG1            ;** Load H with page of FOR/NEXT LIMIT registers
 3735  18BA  CD AD 12                CALL	FSTORE                  ;MGA 3/31/12 no lab here Store the FOR/NEXT LIMIT value
 3736  18BD  C3 E9 18                JMP	NEXT6                    ;Since have IMPLIED STEP jump ahead
 3737  18C0  1D           NEXT5:	DCR	E                            ;MGA 3/21/12 lab here When have STEP directive, subtract one from pointer
 3738  18C1  2E BF                   MVI	L,OFS_EVAL_FINISH                   ;To get to character before S in STEP. Save this value in
 3739  18C3  26 16                   MVI	H,HIGH OLDPG26           ;** The EVAL FINISH pointer stomge location to serve
 3740  18C5  73                      MOV	M,E                      ;As evaluation end location when obtaining TO Iiinit
 3741  18C6  CD 94 03                CALL	EVAL                    ;Evaluate the LIMIT expression to obtain FOR LIMIT
 3742  18C9  2E C8                   MVI	L,OFS_FN_LIMIT                   ;Load L with address of start of FIN LIMIT registers
 3743  18CB  26 01                   MVI	H,HIGH OLDPG1            ;** Load H with page of FORINEXT LIMIT registers
 3744  18CD  CD AD 12                CALL	FSTORE                  ;Store the FOR/NEXT LIMIT value
 3745  18D0  2E BF                   MVI	L,OFS_EVAL_FINISH                   ;Reset L to EVAL FINISH pointer storage location
 3746  18D2  26 16                   MVI	H,HIGH OLDPG26           ;** Set H to page of EVAL FINISH pointer storage loc.
 3747  18D4  7E                      MOV	A,M                      ;Fetch the pointer value (character before S in STEP)
 3748  18D5  C6 05                   ADI	005H                     ;Add five to change pointer to character after P in STEP
 3749  18D7  2D                      DCR	L                        ;Decrement L to point to EVAL (start) pointer
 3750  18D8  77                      MOV	M,A                      ;Set up the starting position for the EVAL subroutine
 3751  18D9  2E 00                   MVI	L,OFS_LINE_INP_BUF                   ; Load L with starting address of the line input buffer
 3752  18DB  46                      MOV	B,M                      ;Fetch the (cc) for the line input buffer (line length)
 3753  18DC  2E BF                   MVI	L,OFS_EVAL_FINISH                   ;Change L to the EVAL FINISH storage location
 3754  18DE  70                      MOV	M,B                      ;Set the EVAL FINISH pointer
 3755  18DF  CD 94 03                CALL	EVAL                    ;Evaluate the STEP SIZE expression
 3756  18E2  2E C4                   MVI	L,OFS_FN_STEP                   ;Load L with address of start of F/N STEP registers
 3757  18E4  26 01                   MVI	H,HIGH OLDPG1            ;** Set H to page of FIN STEP registers
 3758  18E6  CD AD 12                CALL	FSTORE                  ;Store the FOR/NEXT STEP SIZE value
 3759  18E9  2E 64        NEXT6:	MVI	L,OFS_FP_WORK+4                       ;Load L with address of AUX SYMBOL BUFFER
 3760  18EB  26 16                   MVI	H,HIGH OLDPG26           ;** Set H to page of the AUX SYMBOL BUFFER
 3761  18ED  36 00                   MVI	M,000H                   ;Initialize AUX SUMBOL BUFFER with a zero byte
 3762  18EF  2E 1C                   MVI	L,OFS_SCRATCH_PAD1+4                   ;Set L to start of FOR string which is stored in the
 3763  18F1  26 17                   MVI	H,HIGH OLDPG27           ;** KEYWORD look-up table on this page
 3764  18F3  CD 0A 0B                CALL	INSTR                   ;Search the statement line for the FOR directive
 3765  18F6  7B                      MOV	A,E                      ;Register E will be zero if FOR not found. Move E to
 3766  18F7  A7                      ANA	A                        ;ACC and -make test to see if FOR directive located
 3767  18F8  2E 82                   MVI	L,OFS_SCAN_PTR                   ;Load L with address of SCAN pointer
 3768  18FA  26 16                   MVI	H,HIGH OLDPG26           ;** Load H with page of SCAN pointer
 3769  18FC  77                      MOV	M,A                      ;Set up pointer to occurrence of FOR directive in line
 3770  18FD  CA 51 18                JZ	FORNXT                    ;If FOR not found, have an error condition
 3771  1900  C6 03                   ADI	003H                     ;If have FOR, add three to advance pointer over FOR
 3772  1902  2E 83                   MVI	L,OFS_TOKEN_STORE                   ;Set L to point to F/N pointer storage location
 3773  1904  77                      MOV	M,A                      ;Set F/N pointer to character after FOR directive
 3774  1905  2E 83        NEXT7:	MVI	L,OFS_TOKEN_STORE                       ;Set L to point to FIN pointer storage location
 3775  1907  CD A0 02                CALL	GETCHR                  ;Fetch a character from position pointed to by FIN pntr
 3776  190A  CA 17 19                JZ	NEXT8                     ;If character is a space, ignore it
 3777  190D  FE BD                   CPI	0BDH                     ;Else, test to see if character is "=" sign
 3778  190F  CA 22 19                JZ	NEXT9                     ;If yes, have picked up variable name, jump ahead
 3779  1912  2E 64                   MVI	L,OFS_FP_WORK+4                   ;If not, set L to the start of the AUX SYMBOL BUFFER
 3780  1914  CD CC 02                CALL	CONCT1                  ;And store the character in the AUX SYMBOL BUFFER
 3781  1917  2E 83        NEXT8:	MVI	L,OFS_TOKEN_STORE                       ;Load L with address of the F/N pointer
 3782  1919  CD 03 03                CALL	LOOP                    ;Increment the pointer and see if end of the line
 3783  191C  C2 05 19                JNZ	NEXT7                    ;If not, continue fetching characters
 3784  191F  C3 51 18                JMP	FORNXT                   ;If end of line before "=" sign then have error condx
 3785  1922  2E 82        NEXT9:	MVI	L,OFS_SCAN_PTR                       ;Load L with address of SCAN pointer
 3786  1924  26 16                   MVI	H,HIGH OLDPG26           ;** Load H with page of SCAN pointer
 3787  1926  7E                      MOV	A,M                      ;Fetch pointer value to ACC (points to start of FOR
 3788  1927  C6 03                   ADI	003H                     ;Directive) and add three to move pointer over FOR
 3789  1929  2E BE                   MVI	L,OFS_EVAL_PTR                   ;Directive. Change L to EVAL pointer storage location
 3790  192B  77                      MOV	M,A                      ;Set EVAL pointer to character after FOR in line
 3791  192C  2E 83                   MVI	L,OFS_TOKEN_STORE                   ;Load L with address of FIN pointer storage location
 3792  192E  46                      MOV	B,M                      ;Fetch pointer to register B (points to "=" sign) and
 3793  192F  05                      DCR	B                        ;Decrement the pointer (to character before "=" sign)
 3794  1930  2E BF                   MVI	L,OFS_EVAL_FINISH                   ;Load L with address of EVAL FINISH pointer
 3795  1932  70                      MOV	M,B                      ;Set EVAL FINISH pointer
 3796  1933  CD 94 03                CALL	EVAL                    ;Call subroutine to obtain current value of the variable
 3797  1936  2E C4                   MVI	L,OFS_FN_STEP                   ;Load L with address of start of F/N STEP registers
 3798  1938  26 01                   MVI	H,HIGH OLDPG1            ;** Set H to page of F/N STEP registers
 3799  193A  CD BF 12                CALL	FACXOP                  ;Call subroutine to set up FP registers for addition
 3800  193D  CD 89 10                CALL	FPADD                   ;Add FIN STEP size to current VARIABLE value
 3801  1940  2E CC                   MVI	L,OFS_FN_TEMP                   ;Load L with address of FIN TEMP storage registers
 3802  1942  26 01                   MVI	H,HIGH OLDPG1            ;**Set H to page of FIN TEMP storage registers
 3803  1944  CD AD 12                CALL	FSTORE                  ;Save the result of the addition in F/N TEMP registers
 3804  1947  2E C8                   MVI	L,OFS_FN_LIMIT                   ;Load L with starting address of F/N LIMIT registers
 3805  1949  CD BF 12                CALL	FACXOP                  ;Call subroutine to set up FP registers for subtraction
 3806  194C  CD 1A 11                CALL	FPSUB                   ;Subtract F/N LIMIT value from VARIABLE value
 3807  194F  2E C6                   MVI	L,OFS_FN_STEP_C6                   ;Set pointer to MSW of F/N STEP registers
 3808  1951  7E                      MOV	A,M                      ;Fetch this value into the ACC
 3809  1952  A7                      ANA	A                        ;Test to see if STEP value might be zero
 3810  1953  2E 56                   MVI	L,OFS_FPACC_MSW                   ;Load L with address of MSW of FPACC
 3811  1955  7E                      MOV	A,M                      ;Fetch this value into the ACC
 3812  1956  CA 51 18                JZ	FORNXT                    ;If STEP size was zero, then endless loop, an error condx
 3813  1959  FA 78 19                JM	NEXT11                    ;If STEP size less than zero make alternate test on limit
 3814  195C  A7                      ANA	A                        ;Test the contents of the MSW of the FPACC
 3815  195D  FA 7F 19                JM	NEXT12                    ;Continue FORINEXT loop if current variable value is
 3816  1960  CA 7F 19                JZ	NEXT12                    ;Less than or equal to the F/N LIMIT value
 3817  1963  2E F3        NEXT10:	MVI	L,OFS_TEMP_F3                      ;If out of LIMIT range, load L with address of the AUX
 3818  1965  26 16                   MVI	H,HIGH OLDPG26           ;** PGM LINE pointer. (Contains pointer to the NEXT
 3819  1967  5E                      MOV	E,M                      ;Statement line that initiated this routine.) Fetch the
 3820  1968  2D                      DCR	L                        ;Low part of the address into E, decrement the memory
 3821  1969  56                      MOV	D,M                      ;And get the page part of the address into CPU register
 3822  196A  2D                      DCR	L                        ;Decrement memory pointer to the low portion of the
 3823  196B  73                      MOV	M,E                      ;User pgm buffer line pointer (regular pointer) and set it
 3824  196C  2D                      DCR	L                        ;With the value from the AUX line pntr, decrement the
 3825  196D  72                      MOV	M,D                      ;Pointer and do the same for the page portion
 3826  196E  2E 85                   MVI	L,OFS_TEMP_085                   ;Set L to address of FOR/NEXT STACK pointer
 3827  1970  26 17                   MVI	H,HIGH OLDPG27           ;** Set H to page of FOR/NEXT STACK pointer
 3828  1972  46                      MOV	B,M                      ;Fetch and decrement the
 3829  1973  05                      DCR	B                        ;FOR/NEXT STACK pointer value
 3830  1974  70                      MOV	M,B                      ;To perform effective popping operation
 3831  1975  C3 4E 0B                JMP	NXTLIN                   ;Statement line after NEXT statement is done next
 3832  1978  A7           NEXT11:	ANA	A                           ;When F/N STEP is negative, reverse test so that if the
 3833  1979  F2 7F 19                JP	NEXT12                    ;Variable value is greater than or equal to the F/N LIMIT
 3834  197C  C3 63 19                JMP	NEXT10                   ;The FOR/NEXT loop continues. Else it is finished.
 3835  197F  2E CC        NEXT12:	MVI	L,OFS_FN_TEMP                      ;Load L with address of FIN TEMP storage registers
 3836  1981  26 01                   MVI	H,HIGH OLDPG1            ;** Set H to FIN TEMP storage registers page
 3837  1983  CD A4 12                CALL	FLOAD                   ;Transfer the updated variable value to the FPACC
 3838  1986  CD AA 08                CALL	RESTSY                  ;Restore the variable name and value
 3839  1989  CD 2D 08                CALL	STOSYM                  ;In the VARIABLES table. Exit routine so that
 3840  198C  C3 4E 0B                JMP	NXTLIN                   ;Statement line after FOR statement is done next
 3841                     
 3842                     ;;; The label BACKSP SHOULD BE AT 31 217
 3843                     
 3844  198F  3E 8D        BACKSP:	MVI	A,08DH                      ;Load ASCII code for carriage-return into the ACC
 3845  1991  CD 82 03                CALL	ECHO                    ;Display the carriage-return
 3846  1994  CD 82 03                CALL	ECHO                    ;Repeat to provide extra time if TTY
 3847  1997  2E 23                   MVI	L,OFS_COL_COUNTER                   ;Load L with address of COLUMN COUNTER
 3848  1999  26 01                   MVI	H,HIGH OLDPG1            ;** Set H to page of COLUMN COUNTER
 3849  199B  36 01                   MVI	M,001H                   ;Set COLUMN COUNTER to first column
 3850  199D  2E 54                   MVI	L,OFS_FPACC                   ;Set L to address containing desired TAB position
 3851  199F  7E                      MOV	A,M                      ;Fetch the desired TAB position value
 3852  19A0  A7                      ANA	A                        ;Test to see if it is
 3853  19A1  F8                      RM                           ;Negative or zero
 3854  19A2  C8                      RZ                           ;In which case return to caller
 3855  19A3  C3 12 08                JMP	TAB1                     ;Else, proceed to perform the TAB operation.
 3856                     
 3857                     	
 3858                     ;;; The label FOR5 SHOULD START AT 31 246
 3859                     	
 3860  19A6  2E 85        FOR5:	MVI	L,OFS_TEMP_085                        ;Load L with address of the FOR/NEXT STACK pointer
 3861  19A8  26 17                   MVI	H,HIGH OLDPG27           ;** Load H with page of the FOR/NEXT STACK pntr
 3862  19AA  7E                      MOV	A,M                      ;Fetch the stack pointer to the ACC.
 3863  19AB  07                      RLC                          ;Rotate it left to multiply by two, then rotate it again to
 3864  19AC  07                      RLC                          ;Multiply by four. Add this value to the base address
 3865  19AD  C6 5E                   ADI	05EH                     ;Plus two of the base address to point to the next part of
 3866  19AF  5F                      MOV	E,A                      ;The FOR/NEXT STACK. Place this value in register E.
 3867  19B0  54                      MOV	D,H                      ;Set D to the FORINEXT STACK area page.
 3868  19B1  2E 65                   MVI	L,OFS_FP_WORK_65                   ;Load L with the address of the first character in the
 3869  19B3  26 16                   MVI	H,HIGH OLDPG26           ;** AUX SYMBOL BUFFER and set up H to this page.
 3870  19B5  06 02                   MVI	B,002H                   ;Set up register B as a number of bytes to move counter.
 3871  19B7  CD 0B 11                CALL	MOVEIT                  ;Move the variable name into the FOR/NEXT STACK.
 3872  19BA  CD 2D 08                CALL	STOSYM                  ;Store initial variable value in the VARIABLES TABLE.
 3873  19BD  C3 4E 0B                JMP	NXTLIN                   ;Continue with next line in user program buffer.
 3874                     
 3875                     
 3876                     ;;; The label PARSEP SHOULD START AT 31 300
 3877  19C0  2E 7E        PARSEP:	MVI	L,OFS_PARSER_TOKEN                      ;Load L with PARSER TOKEN storage location. Set
 3878  19C2  36 00                   MVI	M,000H                   ;The value indicating end of expression. Call the
 3879  19C4  CD D4 04                CALL	PARSER                  ;PARSER subroutine for final time for the expression.
 3880  19C7  2E 97                   MVI	L,OFS_ARITH_STKPTR                   ;Change L to point to the ARITH STACK pointer.
 3881  19C9  26 01                   MVI	H,HIGH OLDPG1            ;** Set H to the page of the ARITH STACK pointer.
 3882  19CB  7E                      MOV	A,M                      ;Fetch the ARITH STACK pointer value.
 3883  19CC  FE 98                   CPI	098H                     ;Should indicate only one value (answer) in stack.
 3884  19CE  C8                      RZ                           ;Exit with answer in FPACC if ARITH STACK is O.K.
 3885  19CF  C3 6A 09                JMP	SYNERR                   ;Else have a syntax error!
 3886                     	
 3887                     	
 3888                     ;;; THERE IS SOME BLANK ADDRESSES HERE 317-NEXT PAGE
 3889                     	
 3890                     
 3891                     	ORG	01A00H
 3892  1A00  2E 0C        SQRX:	MVI	L,OFS_FP_TEMP                        ;Load L with address of FP TEMP registers
 3893  1A02  26 01                   MVI	H,HIGH OLDPG1            ;** Set H to page of FP TEMP. Move contents of FPACC
 3894  1A04  CD AD 12                CALL	FSTORE                  ;[Argument of SQR(X)] into FP TEMP for storage.
 3895  1A07  2E 56                   MVI	L,OFS_FPACC_MSW                   ;Load L with MSW of FPACC
 3896  1A09  7E                      MOV	A,M                      ;Fetch the MSW into the accumulator
 3897  1A0A  A7                      ANA	A                        ;Check the sign of the number in the FPACC
 3898  1A0B  FA 8F 1A                JM	SQRERR                    ;If number negative, cannot take square root
 3899  1A0E  CA A7 06                JZ	CFALSE                    ;If number is zero, return with zero value in FPACC
 3900  1A11  2E 0F                   MVI	L,OFS_FP_TEMP_0F                   ;Load L with address of FP TEMP Exponent register
 3901  1A13  7E                      MOV	A,M                      ;Fetch the Exponent value into the ACC
 3902  1A14  A7                      ANA	A                        ;Check sign of the Fxponent
 3903  1A15  FA 21 1A                JM	NEGEXP                    ;If Exponent less than zero, process negative Exponent
 3904  1A18  1F                      RAR                          ;If Exponent positive, rotate right to divide by two
 3905  1A19  47                      MOV	B,A                      ;And save the result in CPU register B
 3906  1A1A  3E 00                   MVI	A,000H                   ;Clear the accumulator without disturbing Carry bit
 3907  1A1C  17                      RAL                          ;Rotate Carry bit into the ACC to save remainder
 3908  1A1D  77                      MOV	M,A                      ;Store the remainder back in FP TEMP Exponent reg.
 3909  1A1E  C3 32 1A                JMP	SQREXP                   ;Jump to continue processing
 3910  1A21  47           NEGEXP:	MOV	B,A                         ;For negative Exponent, form two Is complement by
 3911  1A22  AF                      XRA	A                        ;Placing the positive value in CPU register B, clearing
 3912  1A23  90                      SUB	B                        ;The accumulator, and then subtracting B from the ACC
 3913  1A24  A7                      ANA	A                        ;Clear the Carry bit after the complementing operation
 3914  1A25  1F                      RAR                          ;Rotate the value right to divide by two
 3915  1A26  47                      MOV	B,A                      ;Save the result in CPU register B
 3916  1A27  3E 00                   MVI	A,000H                   ;Clear the accumulator without disturbing Carry bit
 3917  1A29  8F                      ADC	A                        ;Add Carry bit to the accumulator as remainder
 3918  1A2A  77                      MOV	M,A                      ;Store the remainder back in FP TEMP Exponent reg
 3919  1A2B  CA 2F 1A                JZ	NOREMD                    ;If remainder was zero skip ahead. If not, increment the
 3920  1A2E  04                      INR	B                        ;Result of the divide by two ops to compen for negative
 3921  1A2F  AF           NOREMD:	XRA	A                           ;Clear the accumulator
 3922  1A30  90                      SUB	B                        ;Subtract the quotient of the divide by two op to
 3923  1A31  47                      MOV	B,A                      ;Form two's complement and save the result in register B
 3924  1A32  2E 0B        SQREXP:	MVI	L,OFS_EXP_COUNTER                      ;Load L with address of TEMP register
 3925  1A34  70                      MOV	M,B                      ;Store Fxponent quotient from above ops in TEMP
 3926  1A35  2E 04                   MVI	L,OFS_FP_CONST_1                   ;Load L with address of FP registers containing +1.0
 3927  1A37  1E 1C                   MVI	E,01CH                   ;Load E with address of SQR APPROX working registers
 3928  1A39  54                      MOV	D,H                      ;Set D to same page as H
 3929  1A3A  06 04                   MVI	B,004H                   ;Set up register B as a number of bytes to move counter
 3930  1A3C  CD 0B 11                CALL	MOVEIT                  ;Transfer value +1.0 into SQR APPROX registers
 3931  1A3F  CD A7 06                CALL	CFALSE                  ;Now clear the FPACC registers
 3932  1A42  2E 24                   MVI	L,OFS_COL_024                   ;Load L with address of LAST SQR APPROX temp regs.
 3933  1A44  CD AD 12                CALL	FSTORE                  ;Initialize the LAST SQR APPROX regs to value of zero
 3934  1A47  2E 1C        SQRLOP:	MVI	L,OFS_SCRATCH_PAD1+4                      ;Load L with address of SQR APPROX working registers
 3935  1A49  CD A4 12                CALL	FLOAD                   ;Transfer SQR APPROX into the FPACC
 3936  1A4C  2E 0C                   MVI	L,OFS_FP_TEMP                   ;Load L with address of SQR ARG storage registers
 3937  1A4E  CD B6 12                CALL	OPLOAD                  ;Transfer SQR ARG into the FPOP
 3938  1A51  CD D2 11                CALL	FPDIV                   ;Divde SQR ARG by SQR APPROX (Fon-n X/A)
 3939  1A54  2E 1C                   MVI	L,OFS_SCRATCH_PAD1+4                   ;Load L with address of SQR APPROX registers
 3940  1A56  CD B6 12                CALL	OPLOAD                  ;Transfer SQR APPROX into the FPOP
 3941  1A59  CD 89 10                CALL	FPADD                   ;Add to form value (X/A + A)
 3942  1A5C  2E 57                   MVI	L,OFS_FPACC_EXP                   ;Load L with address of FPACC Exponent register
 3943  1A5E  46                      MOV	B,M                      ;Fetch Exponent value into CPU register B
 3944  1A5F  05                      DCR	B                        ;Subtract one to effectively divide FPACC by two
 3945  1A60  70                      MOV	M,B                      ;Restore to memory. (Now have ((X/A + A) /2)
 3946  1A61  2E 1C                   MVI	L,OFS_SCRATCH_PAD1+4                   ;Load L with address of SQR APPROX registers
 3947  1A63  CD AD 12                CALL	FSTORE                  ;Store contents of FPACC as new SQR APPROX
 3948  1A66  2E 24                   MVI	L,OFS_COL_024                   ;Load L with address of LAST SQR APPROX registers
 3949  1A68  CD B6 12                CALL	OPLOAD                  ;Transfer LAST SQR APPROX into the FPOP
 3950  1A6B  CD 1A 11                CALL	FPSUB                   ;Subtract (LAST SQR APPROX - SQR APPROX)
 3951  1A6E  2E 57                   MVI	L,OFS_FPACC_EXP                   ;Load L with address of FPACC Exponent
 3952  1A70  7E                      MOV	A,M                      ;Fetch the Exponent into the accumulator
 3953  1A71  FE F7                   CPI	0F7H                     ;See if difference less than 2 to the minus ninth
 3954                     ;;; The below is changed for PATCH 2
 3955                     ;;; following is the original code
 3956                     ;;;           JTS SQRCNV             ;If so, approximation has converged
 3957                     ;;; Now is the new line
 3958  1A73  C3 F4 1A     	   JMP	PATCH2
 3959                     ;;;;           DCL
 3960                     ;;;;           LAM
 3961                     ;;;;           NDA
 3962                     ;;;;           JTZ SQRCNV             ;THIS IS PATCH #2
 3963  1A76  2E 1C        SQR1:	MVI	L,OFS_SCRATCH_PAD1+4                        ;Else, load L with address of SQR APPROX
 3964  1A78  54                      MOV	D,H                      ;Set D to same page as H
 3965  1A79  1E 24                   MVI	E,024H                   ;And E with address of LAST SQR APPROX
 3966  1A7B  06 04                   MVI	B,004H                   ;Set up register B as a number of bytes to move counter
 3967  1A7D  CD 0B 11                CALL	MOVEIT                  ;Transfer SQR APPROX into LAST SQR APPROX
 3968  1A80  C3 47 1A                JMP	SQRLOP                   ;Continue ops until approximation converges
 3969  1A83  2E 0B        SQRCNV:	MVI	L,OFS_EXP_COUNTER                      ;Load L with address of TEMP register. Fetch the
 3970  1A85  7E                      MOV	A,M                      ;Exponenent quotient store there into accumulator.
 3971  1A86  2E 1F                   MVI	L,OFS_SCRATCH_1F                   ;Change L to point to SQR APPROX exponent.
 3972  1A88  86                      ADD	M                        ;Add SQR APPROX exponent to quotient value.
 3973  1A89  77                      MOV	M,A                      ;Store sum back in SQR APPROX Exponent register.
 3974  1A8A  2E 1C                   MVI	L,OFS_SCRATCH_PAD1+4                   ;Load L with address of SQR APPROX. Transfer the
 3975  1A8C  C3 A4 12                JMP	FLOAD                    ;SQR APPROX into FPACC as answer and exit.
 3976  1A8F  3E D3        SQRERR:	MVI	A,0D3H                      ;Load ASCII code for letter S into the accumulator.
 3977  1A91  0E D1                   MVI	C,0D1H                   ;Load ASCII code for letter Q into CPU register C.
 3978  1A93  C3 96 02                JMP	ERROR                    ;Display the SQuare root (SQ) error message.
 3979                     ;;; above instruction starts at 223
 3980                     ;;; some blank addresses available here.
 3981                     	ORG	01AA0H
 3982  1AA0  2E 34        RNDX:	MVI	L,OFS_SCRATCH_PAD2                        ;Load L with address of SEED storage registers
 3983  1AA2  26 01                   MVI	H,HIGH OLDPG1            ;** Set H to page for floating point working registers
 3984  1AA4  CD A4 12                CALL	FLOAD                   ;Transfer SEED into the FPACC
 3985  1AA7  2E 28                   MVI	L,OFS_RND_CONST1                   ;Load L with address of random constant A
 3986  1AA9  CD B6 12                CALL	OPLOAD                  ;Transfer random constant A into the FPOP
 3987  1AAC  CD 26 11                CALL	FPMULT                  ;Multiply to form (SEED * A)
 3988  1AAF  2E 30                   MVI	L,OFS_RND_CONST2                   ;Load L with address of random constant C
 3989  1AB1  CD B6 12                CALL	OPLOAD                  ;Transfer random constant C into the FPOP
 3990  1AB4  CD 89 10                CALL	FPADD                   ;Add to fom (SEED * A) + C
 3991  1AB7  2E 34                   MVI	L,OFS_SCRATCH_PAD2                   ;Load L with address of SEED storage registers
 3992  1AB9  CD AD 12                CALL	FSTORE                  ;Store I (SEED * A) + C] in former SEED registers
 3993  1ABC  2E 57                   MVI	L,OFS_FPACC_EXP                   ;Load L with address of FPACC Exponent register
 3994  1ABE  7E                      MOV	A,M                      ;Fetch Exponent value into the accumulator
 3995  1ABF  D6 10                   SUI	010H                     ;Subtract 16 (decimal) to effectively divide by 65,536
 3996  1AC1  77                      MOV	M,A                      ;Now FPACC = [((SEED * A) + C)/65,536]
 3997  1AC2  CD 00 10                CALL	FPFIX                   ;Convert floating to fixed point to obtain integer part
 3998  1AC5  2E 53                   MVI	L,OFS_SYMBOL_BUF+3                   ;Load L with address of FPACC Extension register
 3999  1AC7  36 00                   MVI	M,000H                   ;Clear the FPACC Extension register
 4000  1AC9  2E 57                   MVI	L,OFS_FPACC_EXP                   ;Load L with address of FPACC Exponent
 4001  1ACB  36 00                   MVI	M,000H                   ;Clear the FPACC Exponent register
 4002  1ACD  CD 34 10                CALL	FPFLT                   ;Fetch INT(((SEED * A) + C)/65,536) into the FPACC
 4003  1AD0  2E 57                   MVI	L,OFS_FPACC_EXP                   ;Load L with address of FPACC Exponent
 4004  1AD2  7E                      MOV	A,M                      ;Fetch FPACC Exponent into the accumulator
 4005  1AD3  C6 10                   ADI	010H                     ;Add 16 (decimal) to effectively multiply by 65,536
 4006  1AD5  77                      MOV	M,A                      ;(65,536 * INT[ ((SEED * A) + C)/65,5361) in FPACC
 4007  1AD6  2E 34                   MVI	L,OFS_SCRATCH_PAD2                   ;Load L with address of [(SEED * A) + C]
 4008  1AD8  CD B6 12                CALL	OPLOAD                  ;Transfer it into FPOP. Subtract FPACC to form
 4009  1ADB  CD 1A 11                CALL	FPSUB                   ;[(SEED * A) + C] MOD 65,536
 4010  1ADE  2E 34                   MVI	L,OFS_SCRATCH_PAD2                   ;Load L with address of former SEED registers
 4011  1AE0  CD AD 12                CALL	FSTORE                  ;Store SEED MOD 65,536 in place of [(SEED * A) + Cl
 4012  1AE3  2E 57                   MVI	L,OFS_FPACC_EXP                   ;Load L with address of FPACC Exponent
 4013  1AE5  7E                      MOV	A,M                      ;Fetch FPACC Exponent into the ACC and subtract
 4014  1AE6  D6 10                   SUI	010H                     ;16 (decimal) to form (SEED MOD 65,536)/65,536
 4015  1AE8  77                      MOV	M,A                      ;So that random number in FPACC is between
 4016  1AE9  C9                      RET                          ;0.0 and +1.0 and exit to calling routine
 4017                     ;;; THE ABOVE RETURN SHOULD BE 32 351
 4018                     	
 4019                     
 4020                     ;;; NOTE OPEN ADDRESSES TO END OF PAGE 32
 4021                     
 4022                     ;;; following is PATCH 2
 4023                     	ORG	01AF4H
 4024  1AF4  FA 83 1A     PATCH2:	JM	SQRCNV
 4025  1AF7  2D           	DCR	L
 4026  1AF8  7E           	MOV	A,M
 4027  1AF9  A7           	ANA	A
 4028  1AFA  CA 83 1A     	JZ	SQRCNV
 4029  1AFD  C3 76 1A     	JMP	SQR1
 4030                     ;;; The above jump should start at 32 375
 4031                     	
 4032                     
 4033                     	;; PAGES 33 TO REMAINDER OF MEMORY
 4034                     	;; OR START OF OPTIONAL ARRAY HANDLING
 4035                     	;; ROUTINES USED AS USER PROGRAM BUFFER
 4036                     
 4037                     
 4038                     
 4039                     	;; OPTIONAL ARRAY ROUTINES ASSEMBLED FOR OPERATION
 4040                     	;; IN THE UPPER 3 PAGES OF A 12K SYSTEM ARE LISTED HERE.
 4041                     
 4042                     	ORG	02D00H
 4043                     	
 4044  2D00  2E 56        PRIGH1:	MVI	L,OFS_FPACC_MSW                      ;Load L with address of the MSW in the FPACC
 4045  2D02  26 01                   MVI	H,HIGH OLDPG1            ;** Set H to page of FPACC
 4046  2D04  7E                      MOV	A,M                      ;Fetch MSW of FPACC into the ACC.
 4047  2D05  A7                      ANA	A                        ;Test to see if value in FPACC is positive.
 4048  2D06  FA 5E 2D                JM	OUTRNG                    ;If not, go display error message.
 4049  2D09  CD 00 10                CALL	FPFIX                   ;If O.K. then convert floating point to fixed point
 4050  2D0C  2E 54                   MVI	L,OFS_FPACC                   ;Load L with address of LSAL of converted value
 4051  2D0E  7E                      MOV	A,M                      ;Fetch the LSW of the value into the ACC
 4052  2D0F  D6 01                   SUI	001H                     ;Subtract one from the value to establish proper
 4053  2D11  07                      RLC                          ;Origin for future ops. Now rotate the value twice
 4054  2D12  07                      RLC                          ;To effectively multiply by four. Save the
 4055  2D13  4F                      MOV	C,A                      ;Calculated result in CPU register C
 4056  2D14  2E 83                   MVI	L,OFS_TOKEN_STORE                   ;Load L with address of F/A STACK TEMP
 4057  2D16  26 17                   MVI	H,HIGH OLDPG27           ;** Load H with page of F/A STACK TEMP
 4058  2D18  7E                      MOV	A,M                      ;Fetch the value into the accumulator
 4059  2D19  EE FF                   XRI	0FFH                     ;Complement the value
 4060  2D1B  07                      RLC                          ;Rotate the value twice to multiply by four (the number
 4061  2D1C  07                      RLC                          ;Of bytes per entry in the ARRAY VARIABLES table).
 4062  2D1D  C6 50                   ADI	050H                     ;Add the starting address of the ARRAY VARIABLES
 4063  2D1F  26 17                   MVI	H,HIGH OLDPG27           ;** TABLE to forin pointer. Set page address in H.
 4064  2D21  6F                      MOV	L,A                      ;Point to the name in the ARRAY VARIABLES
 4065  2D22  2C                      INR	L                        ;Increment the pointer value twice to move over the
 4066  2D23  2C                      INR	L                        ;Name in the table and point to starting address for the
 4067  2D24  7E                      MOV	A,M                      ;Array values in the ARRAY VALUES table. Fetch this
 4068  2D25  81                      ADD	C                        ;Address to the ACC. Now add in the figure calculated
 4069  2D26  6F                      MOV	L,A                      ;To reach desired subscripted data storage location. Set
 4070  2D27  26 2F                   MVI	H,HIGH OLDPG57           ;tt The pointer to that location. Load the floating point
 4071  2D29  C3 A4 12                JMP	FLOAD                    ;Value stored there into the FPACC and exit to caller.
 4072                     	
 4073                     	
 4074                     ;;; The label FUNAR2 SHOULD START AT 55-054
 4075  2D2C  2E 82        FUNAR2:	MVI	L,OFS_SCAN_PTR                      ;Load L with address of TEMP COUNTER
 4076  2D2E  26 17                   MVI	H,HIGH OLDPG27           ;** Load H with page of counter
 4077  2D30  46                      MOV	B,M                      ;Fetch the counter value
 4078  2D31  04                      INR	B                        ;Increment the value
 4079  2D32  70                      MOV	M,B                      ;Restore the value to memory
 4080  2D33  0E 02                   MVI	C,002H                   ;Initialize register C to a value of two for future ops
 4081  2D35  2E 4C                   MVI	L,OFS_ARRAY_VAR                   ;Load L with address of start of ARRAY VARIABLES
 4082  2D37  26 17                   MVI	H,HIGH OLDPG27           ;** TABLE (less four). Set H to page of the table.
 4083  2D39  CD 98 07                CALL	TABADR                  ;Calculate address of start of next narne in table.
 4084  2D3C  16 16                   MVI	D,HIGH OLDPG26           ;** Load D with page of the SYMBOL BUFFER
 4085  2D3E  1E 50                   MVI	E,OFS_SYMBOL_BUF                   ;Set E to starting address of the SYMBOL BUFFER
 4086  2D40  CD DA 02                CALL	STRCP                   ;Compare name in ARRAY VARIABLES table to the
 4087  2D43  CA 54 2D                JZ	FUNAR3                    ;Contents of the SYMBOL BUFFER. If match, go set up
 4088  2D46  2E 82                   MVI	L,OFS_SCAN_PTR                   ;Array token value. Else, reset L to address of TEMP
 4089  2D48  26 17                   MVI	H,HIGH OLDPG27           ;** COUNTER. Set H to page of TEMP COUNTER.
 4090  2D4A  7E                      MOV	A,M                      ;Fetch the counter value into the accumulator.
 4091  2D4B  2E 3D                   MVI	L,OFS_SYMVAR_CNT-2                   ;Change L to number of arrays storage location.
 4092  2D4D  BE                      CMP	M                        ;Compare number of entries checked against number
 4093  2D4E  C2 2C 2D                JNZ	FUNAR2                   ;Possible. Keep searching table if not finished.
 4094  2D51  C3 7A 07                JMP	FAERR                    ;If finished and no match than have F/A error condx.
 4095  2D54  2E 82        FUNAR3:	MVI	L,OFS_SCAN_PTR                      ;Load L with address of TEMP COUNTER
 4096  2D56  26 17                   MVI	H,HIGH OLDPG27           ;** Load H with page of counter.
 4097  2D58  AF                      XRA	A                        ;Clear the accumulator. Subtract the value in the TEMP
 4098  2D59  9E                      SBB	M                        ;COUNTER from zero to obtain two's complement.
 4099  2D5A  77                      MOV	M,A                      ;Place this back in counter location as ARRAY TOKEN
 4100  2D5B  C3 87 07                JMP	FUNAR4                   ;VALUE (negative). Go place the value on F/A STACK.
 4101                     	
 4102                     
 4103                     ;;; The label OUTRNG STARTS AT 55 136
 4104  2D5E  3E CF        OUTRNG:	MVI	A,0CFH                      ;Load the ASCII code for letter 0 into the accumulator
 4105  2D60  0E D2                   MVI	C,0D2H                   ;Load the ASCII code for letter R into register C
 4106  2D62  C3 96 02                JMP	ERROR                    ;Go display Out of Range (OR) error message.
 4107                     	
 4108                     
 4109                     
 4110                     	
 4111  2D65  CD AA 08     ARRAY:	CALL	RESTSY                      ;Transfer contents of AUX SYMBOL BUFFER into the
 4112  2D68  C3 70 2D                JMP	ARRAY2                   ;SYMBOL BUFFER. (Entry when have actual LET)
 4113  2D6B  2E 82        ARRAY1:	MVI	L,OFS_SCAN_PTR                      ;Load L with address of SCAN pointer
 4114  2D6D  C3 72 2D                JMP	ARRAY3                   ;Proceed to process. (Entry point for IMPLIED LET)
 4115  2D70  2E 83        ARRAY2:	MVI	L,OFS_TOKEN_STORE                      ;Load L with address of LET pointer
 4116  2D72  26 16        ARRAY3:	MVI	H,HIGH OLDPG26              ;** Set H to pointer page
 4117  2D74  46                      MOV	B,M                      ;Fetch pointer to location where "(" found in statement
 4118  2D75  04                      INR	B                        ;Line. Increment it to point to next character in the line.
 4119  2D76  2E BE                   MVI	L,OFS_EVAL_PTR                   ;Load L with address of EVAL pointer and load it with
 4120  2D78  70                      MOV	M,B                      ;The starting address for the EVAL routine
 4121  2D79  2E 86                   MVI	L,OFS_ARRAY_SETUP                   ;Change L to address of ARRAY SETUP pointer
 4122  2D7B  70                      MOV	M,B                      ;And also store address in that location
 4123  2D7C  2E 86        ARRAY4:	MVI	L,OFS_ARRAY_SETUP                      ;Load L with address of ARRAY SETUP pointer
 4124  2D7E  CD A0 02                CALL	GETCHR                  ;Fetch character pointed to by ARRAY SETUP pntr
 4125  2D81  FE A9                   CPI	0A9H                     ;See if character is ")" ? If so, then have located
 4126  2D83  CA 95 2D                JZ	ARRAY5                    ;End of the subscript. If not, reset
 4127  2D86  2E 86                   MVI	L,OFS_ARRAY_SETUP                   ;to the ARRAY SETUP pointer. Increment the
 4128  2D88  CD 03 03                CALL	LOOP                    ;Pointer and test for the end of the statement line.
 4129  2D8B  C2 7C 2D                JNZ	ARRAY4                   ;If not end of line, continue looking for right paren.
 4130  2D8E  3E C1                   MVI	A,0C1H                   ;If reach end of line before right parenthesis than load
 4131  2D90  0E C6                   MVI	C,0C6H                   ;ASCII code for letters A and F and display message
 4132  2D92  C3 96 02                JMP	ERROR                    ;Indicating Array Forrnat (AF) error condition
 4133  2D95  2E 86        ARRAY5:	MVI	L,OFS_ARRAY_SETUP                      ;Load L with address of ARRAY SETUP pointer
 4134  2D97  46                      MOV	B,M                      ;Fetch pointer (pointing to ")"sign) into register B
 4135  2D98  05                      DCR	B                        ;Decrement it to move back to end of subscript number
 4136  2D99  2E BF                   MVI	L,OFS_EVAL_FINISH                   ;Load L with address of EVAL FINISH pointer location
 4137  2D9B  70                      MOV	M,B                      ;Place the pointer value in the EVAL FINISH pointer
 4138  2D9C  2E 87                   MVI	L,OFS_LOOP_COUNTER                   ;Load L with address of LOOP COUNTER
 4139  2D9E  36 00                   MVI	M,000H                   ;Initialize LOOP COUNTER to value of zero
 4140  2DA0  2E 87        ARRAY6:	MVI	L,OFS_LOOP_COUNTER                      ;Load L with address of LOOP COUNTER
 4141  2DA2  26 16                   MVI	H,HIGH OLDPG26           ;** Load H with page of LOOP COUNTER
 4142  2DA4  46                      MOV	B,M                      ;Fetch the counter value
 4143  2DA5  04                      INR	B                        ;Increment it
 4144  2DA6  70                      MOV	M,B                      ;Restore the counter value to memory
 4145  2DA7  0E 02                   MVI	C,002H                   ;Set up counter in register C for future ops
 4146  2DA9  2E 4C                   MVI	L,OFS_ARRAY_VAR                   ;Load L with address of start of ARRAY VARIABLES
 4147  2DAB  26 17                   MVI	H,HIGH OLDPG27           ;** Table less four). Set H to page of the table.
 4148  2DAD  CD 98 07                CALL	TABADR                  ;Calculate the address of next entry in the table
 4149  2DB0  1E 50                   MVI	E,OFS_SYMBOL_BUF                   ;Load register E with starting address of SYMBOL BUFF
 4150  2DB2  16 16                   MVI	D,HIGH OLDPG26           ;** Set D to page of SYMBOL BUFFER
 4151  2DB4  CD DA 02                CALL	STRCP                   ;Compare entry in table against contents of SYMBOL BF
 4152  2DB7  CA CA 2D                JZ	ARRAY7                    ;If match, have found array naine in the table.
 4153  2DBA  2E 87                   MVI	L,OFS_LOOP_COUNTER                   ;Else, set L to address of the LOOP COUNTER
 4154  2DBC  26 16                   MVI	H,HIGH OLDPG26           ;** Set H to page of the LOOP COUNTER
 4155  2DBE  7E                      MOV	A,M                      ;Fetch the counter value to the ACC
 4156  2DBF  2E 3D                   MVI	L,OFS_SYMVAR_CNT-2                   ;Change L to the counter containing number of arrays
 4157  2DC1  26 17                   MVI	H,HIGH OLDPG27           ;** Set H to the proper page
 4158  2DC3  BE                      CMP	M                        ;Compare number of arrays to count in LOOP CNTR
 4159  2DC4  C2 A0 2D                JNZ	ARRAY6                   ;If more entries in the table, continue looking for match
 4160  2DC7  C3 7A 07                JMP	FAERR                    ;If no matching name in table then have an error condx.
 4161  2DCA  CD 94 03     ARRAY7:	CALL	EVAL                       ;Call subroutine to evaluate subscript expression
 4162  2DCD  CD 00 10                CALL	FPFIX                   ;Convert the subscript value obtained to fixed forrnat
 4163  2DD0  2E 87                   MVI	L,OFS_LOOP_COUNTER                   ;Load L with address of LOOP COUNTER
 4164  2DD2  26 16                   MVI	H,HIGH OLDPG26           ;** Set H to page of the LOOP COUNTER
 4165  2DD4  46                      MOV	B,M                      ;Fetch the value in the LOOP COUNTER into the ACC
 4166  2DD5  0E 02                   MVI	C,002H                   ;Set up counter in register C future ops
 4167  2DD7  2E 4C                   MVI	L,OFS_ARRAY_VAR                   ;Load L with address of ARRAY VARIABLES
 4168  2DD9  26 17                   MVI	H,HIGH OLDPG27           ;** Table less four). Set H to page of the table.
 4169  2DDB  CD 98 07                CALL	TABADR                  ;Calculate the address of entry in the table
 4170  2DDE  2C                      INR	L                        ;Advance the ARRAY VARIABLES table pointer twice
 4171  2DDF  2C                      INR	L                        ;To advance pointer over array name.
 4172  2DE0  4E                      MOV	C,M                      ;Fetch array base address in ARRAY VALUES table
 4173  2DE1  2E 54                   MVI	L,OFS_FPACC                   ;Load L with address of subscript value
 4174  2DE3  26 01                   MVI	H,HIGH OLDPG1            ;** Set H to page of subscript value
 4175  2DE5  7E                      MOV	A,M                      ;Fetch the subscript value into the accumulator
 4176  2DE6  D6 01                   SUI	001H                     ;Subtract one from subscript value to allow for zero
 4177  2DE8  07                      RLC                          ;Origin. Now multiply by four
 4178  2DE9  07                      RLC                          ;Using rotates (number of bytes required for each entry
 4179  2DEA  81                      ADD	C                        ;In the ARRAY VALUES table). Add in base address to
 4180  2DEB  2E 84                   MVI	L,OFS_TEMP_ARRAY                   ;The calculated value to form final address in the
 4181  2DED  26 17                   MVI	H,HIGH OLDPG27           ;** ARRAY VALUES table. Now set H & L to TEMP
 4182  2DEF  77                      MOV	M,A                      ;ARRAY ELEMENT storage location & store the addr.
 4183  2DF0  2E 81                   MVI	L,OFS_SYNTAX_PTR                   ;Change L to point to ARRAY FLAG
 4184  2DF2  36 FF                   MVI	M,0FFH                   ;Set the ARRAY FLAG for future use
 4185  2DF4  C9                      RET                          ;Exit to calling routine
 4186                     
 4187                     	
 4188                     ;;; The label DIM SHOULD START AT 55 365
 4189  2DF5  CD AD 02     DIM:	CALL	CLESYM                        ;Initialize the SYMBOL BUFFER to cleared condition
 4190  2DF8  2E 82                   MVI	L,OFS_SCAN_PTR                   ;Load L with address of SCAN pointer
 4191  2DFA  46                      MOV	B,M                      ;Fetch SCAN pointer value into register B
 4192  2DFB  04                      INR	B                        ;Add one to the SCAN pointer value
 4193  2DFC  2E 83                   MVI	L,OFS_TOKEN_STORE                   ;Change L to DIM pointer (formerly TOKEN) storage
 4194  2DFE  70                      MOV	M,B                      ;Store the updated SCAN pointer as the DIM pointer
 4195  2DFF  2E 83        DIM1:	MVI	L,OFS_TOKEN_STORE                        ;Load L with the address of DIM pointer storage location
 4196  2E01  CD A0 02                CALL	GETCHR                  ;Fetch a character from the line input buffer
 4197  2E04  CA 0F 2E                JZ	DIM2                      ;If character fetched is a space, ignore it
 4198  2E07  FE A8                   CPI	0A8H                     ;Else see if character is "(" left parenthesis
 4199  2E09  CA 1A 2E                JZ	DIM3                      ;If so, should have ARRAY VARIABLE naine in buffer
 4200  2E0C  CD C8 02                CALL	CONCTS                  ;If not, append the character to the SYMBOL BUFFER
 4201  2E0F  2E 83        DIM2:	MVI	L,OFS_TOKEN_STORE                        ;Load L with the address of DIM pointer stomge location
 4202  2E11  CD 03 03                CALL	LOOP                    ;Increment the pointer and see if end of line
 4203  2E14  C2 FF 2D                JNZ	DIM1                     ;If not end of line, fetch next character
 4204  2E17  C3 DF 2E                JMP	DIMERR                   ;Else have a DIMension error condition
 4205  2E1A  2E 86        DIM3:	MVI	L,OFS_ARRAY_SETUP                        ;Load L with address of ARRAY pointer storage loc
 4206  2E1C  36 00                   MVI	M,000H                   ;Initialize ARRAY pointer to starting value of zero
 4207  2E1E  2E 86        DIM4:	MVI	L,OFS_ARRAY_SETUP                        ;Load L with address of ARRAY pointer storage loc
 4208  2E20  26 16                   MVI	H,HIGH OLDPG26           ;** Set H to page of ARRAY pointer storage location
 4209  2E22  7E                      MOV	A,M                      ;Fetch value in ARRAY pointer to ACC (effectively
 4210  2E23  07                      RLC                          ;Represents number of arrays defined in pgm). Rotate
 4211  2E24  07                      RLC                          ;Left twice to multiply by four (niunber of bytes per
 4212  2E25  C6 4C                   ADI	04CH                     ;entry in ARRAY VARIABLES table). Add to base
 4213  2E27  26 17                   MVI	H,HIGH OLDPG27           ;** Address to form pointer to ARRAY VARIA.BLES
 4214  2E29  6F                      MOV	L,A                      ;Table and set up H & L as the memory pointer.
 4215  2E2A  1E 50                   MVI	E,OFS_SYMBOL_BUF                   ;Load E with starting address of the SYMBOL BUFFER
 4216  2E2C  16 16                   MVI	D,HIGH OLDPG26           ;** Load D with the page address of the SYMBOL BUFF
 4217  2E2E  CD DA 02                CALL	STRCP                   ;Compare contents of SYMBOL BF to entry in ARRAY
 4218  2E31  CA C1 2E                JZ	DIM9                      ;VARIABLES table. If same, have duplicate array name.
 4219  2E34  2E 86                   MVI	L,OFS_ARRAY_SETUP                   ;Else, load L with address of ARRAY pointer storage
 4220  2E36  26 16                   MVI	H,HIGH OLDPG26           ;** Load H with page of ARRAY pointer storage
 4221  2E38  46                      MOV	B,M                      ;Fetch the ARRAY pointer value to register B
 4222  2E39  04                      INR	B                        ;Increment the value
 4223  2E3A  70                      MOV	M,B                      ;Restore it to ARRAY pointer storage location
 4224  2E3B  2E 3D                   MVI	L,OFS_SYMVAR_CNT-2                   ;Change L to number of arrays storage location
 4225  2E3D  26 17                   MVI	H,HIGH OLDPG27           ;** Set H to page of the number of arrays stomge loc
 4226  2E3F  7E                      MOV	A,M                      ;Fetch the number of arrays value to the ACC
 4227  2E40  05                      DCR	B                        ;Restore B to previous count
 4228  2E41  B8                      CMP	B                        ;Compare number of arrays tested against nr defined
 4229  2E42  C2 1E 2E                JNZ	DIM4                     ;If not equal, continue searching ARRAY VARIABLES
 4230  2E45  2E 3D                   MVI	L,OFS_SYMVAR_CNT-2                   ;Table. When table searched with no match, then must
 4231  2E47  26 17                   MVI	H,HIGH OLDPG27           ;** Append naine to table. First set pointer to number
 4232  2E49  46                      MOV	B,M                      ;Of arrays storage location. Fetch that value and
 4233  2E4A  04                      INR	B                        ;Add one to account for new name being added.
 4234  2E4B  70                      MOV	M,B                      ;Restore the updated value back to memory.
 4235  2E4C  2E 3E                   MVI	L,OFS_ARRAY_TEMP                   ;Change pointer to ARRAY TEMP pointer storage
 4236  2E4E  70                      MOV	M,B                      ;Store pointer to current array in ARRAY TEMP too.
 4237  2E4F  2E 86                   MVI	L,OFS_ARRAY_SETUP                   ;Load L with address of ARRAY pointer stomge loc.
 4238  2E51  26 16                   MVI	H,HIGH OLDPG26           ;** Set H to page of ARRAY pointer storage location
 4239  2E53  70                      MOV	M,B                      ;And update it also for new array being added.
 4240  2E54  7E                      MOV	A,M                      ;Fetch the current ARRAY pointer value to the ACC
 4241  2E55  07                      RLC                          ;Multiply it times four by performing two rotate left
 4242  2E56  07                      RLC                          ;Operations and add it to base value to form address in
 4243  2E57  C6 4C                   ADI	04CH                     ;The ARRAY VARIABLES table. Place the low part
 4244  2E59  5F                      MOV	E,A                      ;Of this calculated address value into register E.
 4245  2E5A  16 17                   MVI	D,HIGH OLDPG27           ;** Set register D to the page of the table.
 4246  2E5C  2E 50                   MVI	L,OFS_SYMBOL_BUF                   ;Load L with the start of the SYMBOL BUFFER
 4247  2E5E  26 16                   MVI	H,HIGH OLDPG26           ;** Load H with the page of the SYMBOL BUFFER
 4248  2E60  CD 26 0A                CALL	MOVEC                   ;Move the array name from the SYMBOL BUFFER to
 4249  2E63  CD AD 02                CALL	CLESYM                  ;The ARRAY VARIABLES table. Then clear the
 4250  2E66  2E 83                   MVI	L,OFS_TOKEN_STORE                   ;SYMBOL BUFFER. Reset L to the DIM pointer storage
 4251  2E68  26 16                   MVI	H,HIGH OLDPG26           ;** Location. Set H to the DIM pointer page.
 4252  2E6A  46                      MOV	B,M                      ;Fetch the pointer value (points to "(" part of DIM
 4253  2E6B  04                      INR	B                        ;Statement). Increment the pointer to next character in
 4254  2E6C  2E 84                   MVI	L,OFS_TEMP_ARRAY                   ;The line input buffer. Cbange L to DIMEN pointer.
 4255  2E6E  70                      MOV	M,B                      ;Store the updated DIM pointer in DIMEN storage loc.
 4256  2E6F  2E 84        DIM5:	MVI	L,OFS_TEMP_ARRAY                        ;Set L to DIMEN pointer storage location
 4257  2E71  CD A0 02                CALL	GETCHR                  ;Fetch character in line input buffer
 4258  2E74  CA 89 2E                JZ	DIM6                      ;Ignore character for space
 4259  2E77  FE A9                   CPI	0A9H                     ;If not space, see if character is right parenthesis
 4260  2E79  CA 94 2E                JZ	DIM7                      ;If yes, process DIMension size (array length)
 4261  2E7C  FE B0                   CPI	0B0H                     ;If not, see if character is a valid decimal number
 4262  2E7E  FA DF 2E                JM	DIMERR                    ;If not valid number, have DIMension error condition
 4263  2E81  FE BA                   CPI	0BAH                     ;Continue testing for valid decitnal number
 4264  2E83  F2 DF 2E                JP	DIMERR                    ;If not valid number, then DIMension error condition
 4265  2E86  CD C8 02                CALL	CONCTS                  ;If valid decirnal number, append digit to SYMBOL BF
 4266  2E89  2E 84        DIM6:	MVI	L,OFS_TEMP_ARRAY                        ;Set L to DIMEN pointer storage location
 4267  2E8B  CD 03 03                CALL	LOOP                    ;Advance the pointer value and check for end of the line
 4268  2E8E  C2 6F 2E                JNZ	DIM5                     ;If not end of line, continue fetching DIMension size
 4269  2E91  C3 DF 2E                JMP	DIMERR                   ;If end of line before right parenthesis, have error condx.
 4270  2E94  2E 50        DIM7:	MVI	L,OFS_SYMBOL_BUF                        ;Load L with address of start of SYMBOL BUFFER
 4271  2E96  26 16                   MVI	H,HIGH OLDPG26           ;** Load H with page of SYMBOL BUFFER. (Now
 4272  2E98  CD 24 13                CALL	DINPUT                  ;Contains DIMension size.) Convert buffer to floating
 4273  2E9B  CD 00 10                CALL	FPFIX                   ;Point number and then reformat to fixed point.
 4274  2E9E  2E 54                   MVI	L,OFS_FPACC                   ;Load L with address of LSW of fixed point number
 4275  2EA0  7E                      MOV	A,M                      ; And fetch the low order byte of the nr into the ACC
 4276  2EA1  07                      RLC                          ;Rotate it left two tirnes to multiply it by four (the
 4277  2EA2  07                      RLC                          ;Number of bytes required to store a floating point nr).
 4278  2EA3  4F                      MOV	C,A                      ;Store this value in CPU register C temporarily
 4279  2EA4  2E 3E                   MVI	L,OFS_ARRAY_TEMP                   ;Set L to ARRAY TEMP storage location.
 4280  2EA6  26 17                   MVI	H,HIGH OLDPG27           ;** Set H to ARRAY TEMP pointer page.
 4281  2EA8  7E                      MOV	A,M                      ;Fetch the value in ARRAY TEMP (points to ARRAY
 4282  2EA9  D6 01                   SUI	001H                     ;VARIABLES table). Subtract one from the pointer
 4283  2EAB  07                      RLC                          ;Value and multiply the result by four using rotate left
 4284  2EAC  07                      RLC                          ;Instructions. Add this value to a base address
 4285  2EAD  C6 52                   ADI	052H                     ;(Augmented by two) to point to ARRAY VALUES
 4286  2EAF  6F                      MOV	L,A                      ;Pointer storage location in the ARRAY VARIABLES
 4287  2EB0  26 17                   MVI	H,HIGH OLDPG27           ;Table and set the pointer up in registers H & L.
 4288  2EB2  46                      MOV	B,M                      ;Fetch the starting address in the ARRAY VALUES
 4289  2EB3  C6 04                   ADI	004H                     ;Table for the previous array into register B. Now add
 4290  2EB5  6F                      MOV	L,A                      ;Four to the ARRAY VARIABLES table pointer to
 4291  2EB6  78                      MOV	A,B                      ;Point to curront ARRAY VALUES starting address.
 4292  2EB7  81                      ADD	C                        ;Add the previous array starting address plus number of
 4293  2EB8  77                      MOV	M,A                      ;Bytes required and store as starting loc for next array
 4294  2EB9  2E 84        DIM8:	MVI	L,OFS_TEMP_ARRAY                        ;Set L to address of DIMEN pointer storage location
 4295  2EBB  26 16                   MVI	H,HIGH OLDPG26           ;** Set H to page of DIMEN pointer
 4296  2EBD  46                      MOV	B,M                      ;Fetch pointer value (points to ") " in line)
 4297  2EBE  2E 83                   MVI	L,OFS_TOKEN_STORE                   ;Change L to DIM pointer storage location
 4298  2EC0  70                      MOV	M,B                      ;Store former DIMEN value back in DIM pointer
 4299  2EC1  2E 83        DIM9:	MVI	L,OFS_TOKEN_STORE                        ;Load L with address of DIM pointer storage location
 4300  2EC3  CD A0 02                CALL	GETCHR                  ;Fetch a character from the line input buffer
 4301  2EC6  FE AC                   CPI	0ACH                     ;See if character is a comma (,) sign
 4302  2EC8  CA D6 2E                JZ	DIM10                     ;If yes, have another array being defined on the line
 4303  2ECB  2E 83                   MVI	L,OFS_TOKEN_STORE                   ;If not, reset L to the DIM pointer
 4304  2ECD  CD 03 03                CALL	LOOP                    ;Increment the pointer and see if end of the line
 4305  2ED0  C2 C1 2E                JNZ	DIM9                     ;If not end of the line, keep looking for a comma
 4306  2ED3  C3 4E 0B                JMP	NXTLIN                   ;Else exit the DIM statement routine to continue pgm
 4307  2ED6  2E 83        DIM10:	MVI	L,OFS_TOKEN_STORE                       ;Set L to DIM pointer storage location
 4308  2ED8  46                      MOV	B,M                      ;Fetch pointer value (points to comma sign just found)
 4309  2ED9  2E 82                   MVI	L,OFS_SCAN_PTR                   ;Load L with address of SCAN pointer storage location
 4310  2EDB  70                      MOV	M,B                      ;Place DIM pointer into the-SCAN pointer
 4311  2EDC  C3 F5 2D                JMP	DIM                      ;Continue processing DIM statement line for next array
 4312  2EDF  3E C4        DIMERR:	MVI	A,0C4H                      ;On error condition, load ASCII code for letter D in ACC
 4313  2EE1  0E C5                   MVI	C,0C5H                   ;And ASCII code for letter E in CPU register C
 4314  2EE3  C3 96 02                JMP	ERROR                    ;Go display the Dirnension Error (DE) message.
 4315                     
 4316                     	
 4317                     
 4318                     
 4319                     
 4320                     
 4321                     
